MPASM 5.62                  PICBLINKTEST.ASM   11-26-2016  17:28:27         PAGE  1


LOC  OBJECT CODE     LINE SOURCE TEXT
  VALUE

                      00001 
                      00002 ; PICBASIC PRO(TM) Compiler 3.0.9.2, (c) 1998, 2016 microEngineering Labs, Inc. All Rights Reserved. 
  00000001            00003 MPASMX_USED                     EQU     1
                      00004 
                      00005 #define PBP_PATH        C:\PROGRAM FILES (X86)\PBP3\
                      00006 
                      00007 
                      00008 
                      00009 
                      00017         LIST
                      00018         LIST p = 16F88, r = dec, w = -302, c = 255
                      00019         INCLUDE "P16F88.INC"    ; MPASM  Header
                      00001         LIST
                      00002 
                      00003 ;==========================================================================
                      00004 ; Build date : Apr 06 2015
                      00005 ;  MPASM PIC16F88 processor include
                      00006 ; 
                      00007 ;  (c) Copyright 1999-2015 Microchip Technology, All rights reserved
                      00008 ;==========================================================================
                      00009 
                      00550         LIST
                      00022         LIST
                      00023 
                      00024 
                      00025 PBP_HARDWAREDEF  macro
                      00026   endm
                      00027 
                      00028 
2007   3F54           00029     __CONFIG _CONFIG1, _INTRC_IO & _PWRTE_ON & _MCLR_OFF & _LVP_OFF
                      00030 
                      00031 
                      00032 
                      00033 ; Define statements.
                      00034 ; C:\PROGRAM FILES (X86)\PBP3\DEVICES\PIC16F88.PBPINC   00144   DEFINE  CODE_SIZE 4
                      00035 #define         CODE_SIZE                4
                      00036 ; C:\PICPROGRAMS\PICBLINKTEST.BAS       00027   DEFINE OSC 8
                      00037 #define         OSC              8
                      00038 
  00000020            00039 RAM_START                       EQU     00020h
  000001EF            00040 RAM_END                         EQU     001EFh
  00000004            00041 RAM_BANKS                       EQU     00004h
  00000020            00042 BANK0_START                     EQU     00020h
  0000007F            00043 BANK0_END                       EQU     0007Fh
  000000A0            00044 BANK1_START                     EQU     000A0h
  000000EF            00045 BANK1_END                       EQU     000EFh
  00000110            00046 BANK2_START                     EQU     00110h
  0000016F            00047 BANK2_END                       EQU     0016Fh
  00000190            00048 BANK3_START                     EQU     00190h
  000001EF            00049 BANK3_END                       EQU     001EFh
  00002100            00050 EEPROM_START                    EQU     02100h
  000021FF            00051 EEPROM_END                      EQU     021FFh
                      00052 
MPASM 5.62                  PICBLINKTEST.ASM   11-26-2016  17:28:27         PAGE  2


LOC  OBJECT CODE     LINE SOURCE TEXT
  VALUE

                      00053 ; C:\PROGRAM FILES (X86)\PBP3\PBPPIC14.RAM      00012   A00020  R0      VAR     WORD BANK0 SYSTEM       ' System Register
  00000020            00054 R0                              EQU     RAM_START + 000h
                      00055 ; C:\PROGRAM FILES (X86)\PBP3\PBPPIC14.RAM      00013   A00022  R1      VAR     WORD BANK0 SYSTEM       ' System Register
  00000022            00056 R1                              EQU     RAM_START + 002h
                      00057 ; C:\PROGRAM FILES (X86)\PBP3\PBPPIC14.RAM      00014   A00024  R2      VAR     WORD BANK0 SYSTEM       ' System Register
  00000024            00058 R2                              EQU     RAM_START + 004h
                      00059 ; C:\PROGRAM FILES (X86)\PBP3\PBPPIC14.RAM      00015   A00026  R3      VAR     WORD BANK0 SYSTEM       ' System Register
  00000026            00060 R3                              EQU     RAM_START + 006h
                      00061 ; C:\PROGRAM FILES (X86)\PBP3\PBPPIC14.RAM      00016   A00028  R4      VAR     WORD BANK0 SYSTEM       ' System Register
  00000028            00062 R4                              EQU     RAM_START + 008h
                      00063 ; C:\PROGRAM FILES (X86)\PBP3\PBPPIC14.RAM      00017   A0002A  R5      VAR     WORD BANK0 SYSTEM       ' System Register
  0000002A            00064 R5                              EQU     RAM_START + 00Ah
                      00065 ; C:\PROGRAM FILES (X86)\PBP3\PBPPIC14.RAM      00018   A0002C  R6      VAR     WORD BANK0 SYSTEM       ' System Register
  0000002C            00066 R6                              EQU     RAM_START + 00Ch
                      00067 ; C:\PROGRAM FILES (X86)\PBP3\PBPPIC14.RAM      00019   A0002E  R7      VAR     WORD BANK0 SYSTEM       ' System Register
  0000002E            00068 R7                              EQU     RAM_START + 00Eh
                      00069 ; C:\PROGRAM FILES (X86)\PBP3\PBPPIC14.RAM      00020   A00030  R8      VAR     WORD BANK0 SYSTEM       ' System Register
  00000030            00070 R8                              EQU     RAM_START + 010h
                      00071 ; C:\PROGRAM FILES (X86)\PBP3\PBPPIC14.RAM      00026   A00032  FLAGS   VAR     BYTE BANK0 SYSTEM       ' Static flags
  00000032            00072 FLAGS                           EQU     RAM_START + 012h
                      00073 ; C:\PROGRAM FILES (X86)\PBP3\PBPPIC14.RAM      00025   A00033  GOP     VAR     BYTE BANK0 SYSTEM       ' Gen Op Parameter
  00000033            00074 GOP                             EQU     RAM_START + 013h
                      00075 ; C:\PROGRAM FILES (X86)\PBP3\PBPPIC14.RAM      00022   A00034  RM1     VAR     BYTE BANK0 SYSTEM       ' Pin 1 Mask
  00000034            00076 RM1                             EQU     RAM_START + 014h
                      00077 ; C:\PROGRAM FILES (X86)\PBP3\PBPPIC14.RAM      00024   A00035  RM2     VAR     BYTE BANK0 SYSTEM       ' Pin 2 Mask
  00000035            00078 RM2                             EQU     RAM_START + 015h
                      00079 ; C:\PROGRAM FILES (X86)\PBP3\PBPPIC14.RAM      00021   A00036  RR1     VAR     BYTE BANK0 SYSTEM       ' Pin 1 Register
  00000036            00080 RR1                             EQU     RAM_START + 016h
                      00081 ; C:\PROGRAM FILES (X86)\PBP3\PBPPIC14.RAM      00023   A00037  RR2     VAR     BYTE BANK0 SYSTEM       ' Pin 2 Register
  00000037            00082 RR2                             EQU     RAM_START + 017h
                      00083 ; C:\PICPROGRAMS\PICBLINKTEST.BAS       00040   A00038  I Var BYTE
  00000038            00084 _I                              EQU     RAM_START + 018h
                      00085 ; C:\PICPROGRAMS\PICBLINKTEST.BAS       00041   A00039  lightDelay var byte 'ms to wait between light pulses
  00000039            00086 _lightDelay                     EQU     RAM_START + 019h
                      00087 ; C:\PICPROGRAMS\PICBLINKTEST.BAS       00044   A0003A  lightState var byte
  0000003A            00088 _lightState                     EQU     RAM_START + 01Ah
                      00089 ; C:\PROGRAM FILES (X86)\PBP3\DEVICES\PIC16F88.PBPINC   00145   PORTL   VAR     PORTB
  00000006            00090 _PORTL                          EQU      PORTB
                      00091 ; C:\PROGRAM FILES (X86)\PBP3\DEVICES\PIC16F88.PBPINC   00146   PORTH   VAR     PORTA
  00000005            00092 _PORTH                          EQU      PORTA
                      00093 ; C:\PROGRAM FILES (X86)\PBP3\DEVICES\PIC16F88.PBPINC   00147   TRISL   VAR     TRISB
  00000086            00094 _TRISL                          EQU      TRISB
                      00095 ; C:\PROGRAM FILES (X86)\PBP3\DEVICES\PIC16F88.PBPINC   00148   TRISH   VAR     TRISA
  00000085            00096 _TRISH                          EQU      TRISA
                      00097 #define _LIGHT                  _PORTB??0
                      00098 #define _SWITCHL                _PORTA??0
                      00099 #define _SWITCHR                _PORTA??1
                      00100 #define _OSCCON??4               OSCCON, 004h
                      00101 #define _OSCCON??5               OSCCON, 005h
                      00102 #define _OSCCON??6               OSCCON, 006h
                      00103 #define _PORTB??0                PORTB, 000h
                      00104 #define _PORTA??0                PORTA, 000h
                      00105 #define _PORTA??1                PORTA, 001h
MPASM 5.62                  PICBLINKTEST.ASM   11-26-2016  17:28:27         PAGE  3


LOC  OBJECT CODE     LINE SOURCE TEXT
  VALUE

                      00106         INCLUDE "PICBLINKTEST.MAC"
                      00001 
                      00096         LIST
                      00107         INCLUDE "C:\PROGRAM FILES (X86)\PBP3\PBPPIC14.LIB"
                      00001 ;******************************************************************
                      00002 ;*  PBPPIC14.LIB                                                  *
                      00003 ;*                                                                *
                      00004 ;*  By        : Leonard Zerman, Jeff Schmoyer,                    *
                      00005 ;*              Darrel Taylor, Charles Leo                        *
                      00006 ;*  Notice    : Copyright (c) 2011 microEngineering Labs, Inc.    *
                      00007 ;*              All Rights Reserved                               *
                      00008 ;*  Date      : 07/15/2011                                        *
                      00009 ;*  Version   : 3.0.0                                             *
                      00010 ;*  Notes     :                                                   *
                      00011 ;******************************************************************
                      00061   LIST
                      00062 ; Oscillator is 8MHz
                      01135   LIST
0000                  01136     ORG RESET_ORG               ; Reset vector usually at 0
                      01151   LIST
0000   2827           01152         goto    INIT            ; Finish initialization
                      06338   LIST
0001   01A3           06339 PAUSE   clrf    R1 + 1
0002   00A2           06340 PAUSEL  movwf   R1
0003   30FF           06341 pauseloop movlw -1              ; 1 (9)
0004   07A2           06342         addwf   R1, F           ; 1
0005   1C03           06343         btfss   STATUS, C       ; 1 / 2
0006   07A3           06344         addwf   R1 + 1, F       ; 1 / 0
0007   1C03           06345         btfss   STATUS, C       ; 2
0008   2822           06346         goto    DONE
0009   3003           06347         movlw   (PAUSE_DELAY) >> 8      ; 1
000A   00A1           06348         movwf   R0 + 1          ; 1
000B   30E3           06349         movlw   low (PAUSE_DELAY)       ; 1
000C   200F           06350         call    PAUSEUSL        ; -2 (PAUSEUSL gives you 2 less than you ask for)
000D   2803           06351         goto    pauseloop       ; 2
                      06430   LIST
000E   01A1           06431 PAUSEUS clrf    R0 + 1          ; 1
000F   3EF4           06432 PAUSEUSL addlw  -12             ; 1 Subtract overhead
0010   00A0           06433         movwf   R0              ; 1
0011   09A1           06434         comf    R0 + 1, F       ; 1
0012   30FE           06435         movlw   -2              ; 1
0013   1C03           06436         btfss   STATUS, C       ; 1 / 2
0014   2818           06437         goto    pauseush        ; 2 / 0
0015   07A0           06438 pauseusloop addwf R0, F         ; 1
0016   1803           06439         btfsc   STATUS, C       ; 1 / 2
0017   2815           06440         goto    pauseusloop     ; 2 / 0
0018   07A0           06441 pauseush addwf  R0, F           ; 1 Do an extra countdown
                      06442         CLRWDT?NOP              ; 1 Keep Watchdog clear
                          M     ifndef NO_CLRWDT
0019   0064               M         clrwdt
                          M     else
                          M         nop
                          M     endif
MPASM 5.62                  PICBLINKTEST.ASM   11-26-2016  17:28:27         PAGE  4


LOC  OBJECT CODE     LINE SOURCE TEXT
  VALUE

001A   0FA1           06443         incfsz  R0 + 1, F       ; 1 / 2
001B   2815           06444         goto    pauseusloop     ; 2 / 0
001C   0000           06445         nop                     ; 1
001D   1820           06446         btfsc   R0, 0           ; 1 / 2
001E   281F           06447         goto    $ + 1           ; 2 / 0 Burn an extra cycle
001F   1820           06448         btfsc   R0, 0           ; 1 / 2
0020   2821           06449         goto    $ + 1           ; 2 / 0 Burn an extra cycle
0021   0008           06450         return                  ; 2 + 3 (call + setup)
                      07775   LIST
0022   1383           07776 DONE    bcf     STATUS, IRP     ; 1 Set FSR to bank 0/1
0023   1303           07777         bcf     STATUS, RP1     ; 1 Show direct bank 0
0024   1283           07778         bcf     STATUS, RP0     ; 1
                      07779         CLRWDT?NOP              ; 1 Hit Watchdog timer
                          M     ifndef NO_CLRWDT
0025   0064               M         clrwdt
                          M     else
                          M         nop
                          M     endif
0026   0008           07780 DONERET return                  ; 2 Done
                      07806   LIST
0027                  07807 INIT
                      07845   LIST
0027                  07846 main
                      00108 
                      00109 
                      00110 ; C:\PROGRAM FILES (X86)\PBP3\DEVICES\PIC16F88.PBPINC   00036   #HEADER
                      00111 ; C:\PROGRAM FILES (X86)\PBP3\DEVICES\PIC16F88.PBPINC   00060   #CONFIG
                      00112 ; C:\PROGRAM FILES (X86)\PBP3\DEVICES\PIC16F88.PBPINC   00134   BANK0   $0020, $007F
                      00113 ; C:\PROGRAM FILES (X86)\PBP3\DEVICES\PIC16F88.PBPINC   00135   BANK1   $00A0, $00EF
                      00114 ; C:\PROGRAM FILES (X86)\PBP3\DEVICES\PIC16F88.PBPINC   00136   BANK2   $0110, $016F
                      00115 ; C:\PROGRAM FILES (X86)\PBP3\DEVICES\PIC16F88.PBPINC   00137   BANK3   $0190, $01EF
                      00116 ; C:\PROGRAM FILES (X86)\PBP3\DEVICES\PIC16F88.PBPINC   00139   EEPROM  $2100, $21FF
                      00117 ; C:\PROGRAM FILES (X86)\PBP3\DEVICES\PIC16F88.PBPINC   00141       #ERROR "-n option (PBPL) is not supported for this device."
                      00118 ; C:\PROGRAM FILES (X86)\PBP3\DEVICES\PIC16F88.PBPINC   00142   #ENDIF
                      00119 ; C:\PROGRAM FILES (X86)\PBP3\DEVICES\PIC16F88.PBPINC   00143   LIBRARY "PBPPIC14"
                      00120 ; C:\PROGRAM FILES (X86)\PBP3\DEVICES\PIC16F88.PBPINC   00144   DEFINE  CODE_SIZE 4
                      00121 
                      00122 ; C:\PROGRAM FILES (X86)\PBP3\DEVICES\PIC16F88.PBPINC   00149   include "PBPPIC14.RAM"
                      00123 ; C:\PROGRAM FILES (X86)\PBP3\DEVICES\PIC16F88.PBPINC   00153   #HEADER
                      00124 ; C:\PICPROGRAMS\PICBLINKTEST.BAS       00022   #CONFIG
                      00125 ; C:\PICPROGRAMS\PICBLINKTEST.BAS       00027   DEFINE OSC 8
                      00126 
                      00127 ; C:\PICPROGRAMS\PICBLINKTEST.BAS       00028   OSCCON.4 = 1
                      00128         MOVE?CT 001h, _OSCCON??4
                          M         CHK?RP  OSCCON
                          M     if (((OSCCON) & 180h) == 0)
                          M       if (PREV_BANK == 1)
                          M         bcf     STATUS, RP0
                          M       endif
                          M       if (PREV_BANK == 2)
                          M         bcf     STATUS, RP1
                          M       endif
                          M       if (PREV_BANK == 3)
MPASM 5.62                  PICBLINKTEST.ASM   11-26-2016  17:28:27         PAGE  5


LOC  OBJECT CODE     LINE SOURCE TEXT
  VALUE

                          M         bcf     STATUS, RP0
                          M         bcf     STATUS, RP1
                          M       endif
                          M PREV_BANK = 0
                          M     endif
                          M 
                          M     if (((OSCCON) & 180h) == 80h)
                          M       if (PREV_BANK == 0)
0027   1683               M         bsf     STATUS, RP0
                          M       endif
                          M       if (PREV_BANK == 2)
                          M         bsf     STATUS, RP0
                          M         bcf     STATUS, RP1
                          M       endif
                          M       if (PREV_BANK == 3)
                          M         bcf     STATUS, RP1
                          M       endif
  00000001                M PREV_BANK = 1
                          M     endif
                          M 
                          M     if (((OSCCON) & 180h) == 100h)
                          M       if (PREV_BANK == 0)
                          M         bsf     STATUS, RP1
                          M       endif
                          M       if (PREV_BANK == 1)
                          M         bcf     STATUS, RP0
                          M         bsf     STATUS, RP1
                          M       endif
                          M       if (PREV_BANK == 3)
                          M         bcf     STATUS, RP0
                          M       endif
                          M PREV_BANK = 2
                          M     endif
                          M 
                          M     if (((OSCCON) & 180h) == 180h)
                          M       if (PREV_BANK == 0)
                          M         bsf     STATUS, RP0
                          M         bsf     STATUS, RP1
                          M       endif
                          M       if (PREV_BANK == 1)
                          M         bsf     STATUS, RP1
                          M       endif
                          M       if (PREV_BANK == 2)
                          M         bsf     STATUS, RP0
                          M       endif
                          M PREV_BANK = 3
                          M     endif
                          M     if (((001h) & 1) == 1)
0028   160F               M         bsf     OSCCON, 004h
                          M     else
                          M         bcf     OSCCON, 004h
                          M     endif
                      00129 
MPASM 5.62                  PICBLINKTEST.ASM   11-26-2016  17:28:27         PAGE  6


LOC  OBJECT CODE     LINE SOURCE TEXT
  VALUE

                      00130 ; C:\PICPROGRAMS\PICBLINKTEST.BAS       00029   OSCCON.5 = 1
                      00131         MOVE?CT 001h, _OSCCON??5
                          M         CHK?RP  OSCCON
                          M     if (((OSCCON) & 180h) == 0)
                          M       if (PREV_BANK == 1)
                          M         bcf     STATUS, RP0
                          M       endif
                          M       if (PREV_BANK == 2)
                          M         bcf     STATUS, RP1
                          M       endif
                          M       if (PREV_BANK == 3)
                          M         bcf     STATUS, RP0
                          M         bcf     STATUS, RP1
                          M       endif
                          M PREV_BANK = 0
                          M     endif
                          M 
                          M     if (((OSCCON) & 180h) == 80h)
                          M       if (PREV_BANK == 0)
                          M         bsf     STATUS, RP0
                          M       endif
                          M       if (PREV_BANK == 2)
                          M         bsf     STATUS, RP0
                          M         bcf     STATUS, RP1
                          M       endif
                          M       if (PREV_BANK == 3)
                          M         bcf     STATUS, RP1
                          M       endif
  00000001                M PREV_BANK = 1
                          M     endif
                          M 
                          M     if (((OSCCON) & 180h) == 100h)
                          M       if (PREV_BANK == 0)
                          M         bsf     STATUS, RP1
                          M       endif
                          M       if (PREV_BANK == 1)
                          M         bcf     STATUS, RP0
                          M         bsf     STATUS, RP1
                          M       endif
                          M       if (PREV_BANK == 3)
                          M         bcf     STATUS, RP0
                          M       endif
                          M PREV_BANK = 2
                          M     endif
                          M 
                          M     if (((OSCCON) & 180h) == 180h)
                          M       if (PREV_BANK == 0)
                          M         bsf     STATUS, RP0
                          M         bsf     STATUS, RP1
                          M       endif
                          M       if (PREV_BANK == 1)
                          M         bsf     STATUS, RP1
                          M       endif
MPASM 5.62                  PICBLINKTEST.ASM   11-26-2016  17:28:27         PAGE  7


LOC  OBJECT CODE     LINE SOURCE TEXT
  VALUE

                          M       if (PREV_BANK == 2)
                          M         bsf     STATUS, RP0
                          M       endif
                          M PREV_BANK = 3
                          M     endif
                          M     if (((001h) & 1) == 1)
0029   168F               M         bsf     OSCCON, 005h
                          M     else
                          M         bcf     OSCCON, 005h
                          M     endif
                      00132 
                      00133 ; C:\PICPROGRAMS\PICBLINKTEST.BAS       00030   OSCCON.6 = 1
                      00134         MOVE?CT 001h, _OSCCON??6
                          M         CHK?RP  OSCCON
                          M     if (((OSCCON) & 180h) == 0)
                          M       if (PREV_BANK == 1)
                          M         bcf     STATUS, RP0
                          M       endif
                          M       if (PREV_BANK == 2)
                          M         bcf     STATUS, RP1
                          M       endif
                          M       if (PREV_BANK == 3)
                          M         bcf     STATUS, RP0
                          M         bcf     STATUS, RP1
                          M       endif
                          M PREV_BANK = 0
                          M     endif
                          M 
                          M     if (((OSCCON) & 180h) == 80h)
                          M       if (PREV_BANK == 0)
                          M         bsf     STATUS, RP0
                          M       endif
                          M       if (PREV_BANK == 2)
                          M         bsf     STATUS, RP0
                          M         bcf     STATUS, RP1
                          M       endif
                          M       if (PREV_BANK == 3)
                          M         bcf     STATUS, RP1
                          M       endif
  00000001                M PREV_BANK = 1
                          M     endif
                          M 
                          M     if (((OSCCON) & 180h) == 100h)
                          M       if (PREV_BANK == 0)
                          M         bsf     STATUS, RP1
                          M       endif
                          M       if (PREV_BANK == 1)
                          M         bcf     STATUS, RP0
                          M         bsf     STATUS, RP1
                          M       endif
                          M       if (PREV_BANK == 3)
                          M         bcf     STATUS, RP0
                          M       endif
MPASM 5.62                  PICBLINKTEST.ASM   11-26-2016  17:28:27         PAGE  8


LOC  OBJECT CODE     LINE SOURCE TEXT
  VALUE

                          M PREV_BANK = 2
                          M     endif
                          M 
                          M     if (((OSCCON) & 180h) == 180h)
                          M       if (PREV_BANK == 0)
                          M         bsf     STATUS, RP0
                          M         bsf     STATUS, RP1
                          M       endif
                          M       if (PREV_BANK == 1)
                          M         bsf     STATUS, RP1
                          M       endif
                          M       if (PREV_BANK == 2)
                          M         bsf     STATUS, RP0
                          M       endif
                          M PREV_BANK = 3
                          M     endif
                          M     if (((001h) & 1) == 1)
002A   170F               M         bsf     OSCCON, 006h
                          M     else
                          M         bcf     OSCCON, 006h
                          M     endif
                      00135 
                      00136 ; C:\PICPROGRAMS\PICBLINKTEST.BAS       00034   ansel = 0
                      00137         MOVE?CB 000h, ANSEL
                          M         CHK?RP  ANSEL
                          M     if (((ANSEL) & 180h) == 0)
                          M       if (PREV_BANK == 1)
                          M         bcf     STATUS, RP0
                          M       endif
                          M       if (PREV_BANK == 2)
                          M         bcf     STATUS, RP1
                          M       endif
                          M       if (PREV_BANK == 3)
                          M         bcf     STATUS, RP0
                          M         bcf     STATUS, RP1
                          M       endif
                          M PREV_BANK = 0
                          M     endif
                          M 
                          M     if (((ANSEL) & 180h) == 80h)
                          M       if (PREV_BANK == 0)
                          M         bsf     STATUS, RP0
                          M       endif
                          M       if (PREV_BANK == 2)
                          M         bsf     STATUS, RP0
                          M         bcf     STATUS, RP1
                          M       endif
                          M       if (PREV_BANK == 3)
                          M         bcf     STATUS, RP1
                          M       endif
  00000001                M PREV_BANK = 1
                          M     endif
                          M 
MPASM 5.62                  PICBLINKTEST.ASM   11-26-2016  17:28:27         PAGE  9


LOC  OBJECT CODE     LINE SOURCE TEXT
  VALUE

                          M     if (((ANSEL) & 180h) == 100h)
                          M       if (PREV_BANK == 0)
                          M         bsf     STATUS, RP1
                          M       endif
                          M       if (PREV_BANK == 1)
                          M         bcf     STATUS, RP0
                          M         bsf     STATUS, RP1
                          M       endif
                          M       if (PREV_BANK == 3)
                          M         bcf     STATUS, RP0
                          M       endif
                          M PREV_BANK = 2
                          M     endif
                          M 
                          M     if (((ANSEL) & 180h) == 180h)
                          M       if (PREV_BANK == 0)
                          M         bsf     STATUS, RP0
                          M         bsf     STATUS, RP1
                          M       endif
                          M       if (PREV_BANK == 1)
                          M         bsf     STATUS, RP1
                          M       endif
                          M       if (PREV_BANK == 2)
                          M         bsf     STATUS, RP0
                          M       endif
                          M PREV_BANK = 3
                          M     endif
                          M     if (low (000h) == 0)
002B   019B               M         clrf    ANSEL
                          M     else
                          M         movlw   low (000h)
                          M         movwf   ANSEL
                          M     endif
                      00138 
                      00139 ; C:\PICPROGRAMS\PICBLINKTEST.BAS       00037   TRISA = %00000011 ' A1,2,3, are inputs
                      00140         MOVE?CB 003h, TRISA
                          M         CHK?RP  TRISA
                          M     if (((TRISA) & 180h) == 0)
                          M       if (PREV_BANK == 1)
                          M         bcf     STATUS, RP0
                          M       endif
                          M       if (PREV_BANK == 2)
                          M         bcf     STATUS, RP1
                          M       endif
                          M       if (PREV_BANK == 3)
                          M         bcf     STATUS, RP0
                          M         bcf     STATUS, RP1
                          M       endif
                          M PREV_BANK = 0
                          M     endif
                          M 
                          M     if (((TRISA) & 180h) == 80h)
                          M       if (PREV_BANK == 0)
MPASM 5.62                  PICBLINKTEST.ASM   11-26-2016  17:28:27         PAGE 10


LOC  OBJECT CODE     LINE SOURCE TEXT
  VALUE

                          M         bsf     STATUS, RP0
                          M       endif
                          M       if (PREV_BANK == 2)
                          M         bsf     STATUS, RP0
                          M         bcf     STATUS, RP1
                          M       endif
                          M       if (PREV_BANK == 3)
                          M         bcf     STATUS, RP1
                          M       endif
  00000001                M PREV_BANK = 1
                          M     endif
                          M 
                          M     if (((TRISA) & 180h) == 100h)
                          M       if (PREV_BANK == 0)
                          M         bsf     STATUS, RP1
                          M       endif
                          M       if (PREV_BANK == 1)
                          M         bcf     STATUS, RP0
                          M         bsf     STATUS, RP1
                          M       endif
                          M       if (PREV_BANK == 3)
                          M         bcf     STATUS, RP0
                          M       endif
                          M PREV_BANK = 2
                          M     endif
                          M 
                          M     if (((TRISA) & 180h) == 180h)
                          M       if (PREV_BANK == 0)
                          M         bsf     STATUS, RP0
                          M         bsf     STATUS, RP1
                          M       endif
                          M       if (PREV_BANK == 1)
                          M         bsf     STATUS, RP1
                          M       endif
                          M       if (PREV_BANK == 2)
                          M         bsf     STATUS, RP0
                          M       endif
                          M PREV_BANK = 3
                          M     endif
                          M     if (low (003h) == 0)
                          M         clrf    TRISA
                          M     else
002C   3003               M         movlw   low (003h)
002D   0085               M         movwf   TRISA
                          M     endif
                      00141 
                      00142 ; C:\PICPROGRAMS\PICBLINKTEST.BAS       00038   TRISB = %00000000
                      00143         MOVE?CB 000h, TRISB
                          M         CHK?RP  TRISB
                          M     if (((TRISB) & 180h) == 0)
                          M       if (PREV_BANK == 1)
                          M         bcf     STATUS, RP0
                          M       endif
MPASM 5.62                  PICBLINKTEST.ASM   11-26-2016  17:28:27         PAGE 11


LOC  OBJECT CODE     LINE SOURCE TEXT
  VALUE

                          M       if (PREV_BANK == 2)
                          M         bcf     STATUS, RP1
                          M       endif
                          M       if (PREV_BANK == 3)
                          M         bcf     STATUS, RP0
                          M         bcf     STATUS, RP1
                          M       endif
                          M PREV_BANK = 0
                          M     endif
                          M 
                          M     if (((TRISB) & 180h) == 80h)
                          M       if (PREV_BANK == 0)
                          M         bsf     STATUS, RP0
                          M       endif
                          M       if (PREV_BANK == 2)
                          M         bsf     STATUS, RP0
                          M         bcf     STATUS, RP1
                          M       endif
                          M       if (PREV_BANK == 3)
                          M         bcf     STATUS, RP1
                          M       endif
  00000001                M PREV_BANK = 1
                          M     endif
                          M 
                          M     if (((TRISB) & 180h) == 100h)
                          M       if (PREV_BANK == 0)
                          M         bsf     STATUS, RP1
                          M       endif
                          M       if (PREV_BANK == 1)
                          M         bcf     STATUS, RP0
                          M         bsf     STATUS, RP1
                          M       endif
                          M       if (PREV_BANK == 3)
                          M         bcf     STATUS, RP0
                          M       endif
                          M PREV_BANK = 2
                          M     endif
                          M 
                          M     if (((TRISB) & 180h) == 180h)
                          M       if (PREV_BANK == 0)
                          M         bsf     STATUS, RP0
                          M         bsf     STATUS, RP1
                          M       endif
                          M       if (PREV_BANK == 1)
                          M         bsf     STATUS, RP1
                          M       endif
                          M       if (PREV_BANK == 2)
                          M         bsf     STATUS, RP0
                          M       endif
                          M PREV_BANK = 3
                          M     endif
                          M     if (low (000h) == 0)
002E   0186               M         clrf    TRISB
MPASM 5.62                  PICBLINKTEST.ASM   11-26-2016  17:28:27         PAGE 12


LOC  OBJECT CODE     LINE SOURCE TEXT
  VALUE

                          M     else
                          M         movlw   low (000h)
                          M         movwf   TRISB
                          M     endif
                      00144 
                      00145 ; C:\PICPROGRAMS\PICBLINKTEST.BAS       00042   lightdelay = 50
                      00146         MOVE?CB 032h, _lightDelay
                          M         CHK?RP  _lightDelay
                          M     if (((_lightDelay) & 180h) == 0)
                          M       if (PREV_BANK == 1)
002F   1283               M         bcf     STATUS, RP0
                          M       endif
                          M       if (PREV_BANK == 2)
                          M         bcf     STATUS, RP1
                          M       endif
                          M       if (PREV_BANK == 3)
                          M         bcf     STATUS, RP0
                          M         bcf     STATUS, RP1
                          M       endif
  00000000                M PREV_BANK = 0
                          M     endif
                          M 
                          M     if (((_lightDelay) & 180h) == 80h)
                          M       if (PREV_BANK == 0)
                          M         bsf     STATUS, RP0
                          M       endif
                          M       if (PREV_BANK == 2)
                          M         bsf     STATUS, RP0
                          M         bcf     STATUS, RP1
                          M       endif
                          M       if (PREV_BANK == 3)
                          M         bcf     STATUS, RP1
                          M       endif
                          M PREV_BANK = 1
                          M     endif
                          M 
                          M     if (((_lightDelay) & 180h) == 100h)
                          M       if (PREV_BANK == 0)
                          M         bsf     STATUS, RP1
                          M       endif
                          M       if (PREV_BANK == 1)
                          M         bcf     STATUS, RP0
                          M         bsf     STATUS, RP1
                          M       endif
                          M       if (PREV_BANK == 3)
                          M         bcf     STATUS, RP0
                          M       endif
                          M PREV_BANK = 2
                          M     endif
                          M 
                          M     if (((_lightDelay) & 180h) == 180h)
                          M       if (PREV_BANK == 0)
                          M         bsf     STATUS, RP0
MPASM 5.62                  PICBLINKTEST.ASM   11-26-2016  17:28:27         PAGE 13


LOC  OBJECT CODE     LINE SOURCE TEXT
  VALUE

                          M         bsf     STATUS, RP1
                          M       endif
                          M       if (PREV_BANK == 1)
                          M         bsf     STATUS, RP1
                          M       endif
                          M       if (PREV_BANK == 2)
                          M         bsf     STATUS, RP0
                          M       endif
                          M PREV_BANK = 3
                          M     endif
                          M     if (low (032h) == 0)
                          M         clrf    _lightDelay
                          M     else
0030   3032               M         movlw   low (032h)
0031   00B9               M         movwf   _lightDelay
                          M     endif
                      00147 
                      00148 ; C:\PICPROGRAMS\PICBLINKTEST.BAS       00045   lightState = 0
                      00149         MOVE?CB 000h, _lightState
                          M         CHK?RP  _lightState
                          M     if (((_lightState) & 180h) == 0)
                          M       if (PREV_BANK == 1)
                          M         bcf     STATUS, RP0
                          M       endif
                          M       if (PREV_BANK == 2)
                          M         bcf     STATUS, RP1
                          M       endif
                          M       if (PREV_BANK == 3)
                          M         bcf     STATUS, RP0
                          M         bcf     STATUS, RP1
                          M       endif
  00000000                M PREV_BANK = 0
                          M     endif
                          M 
                          M     if (((_lightState) & 180h) == 80h)
                          M       if (PREV_BANK == 0)
                          M         bsf     STATUS, RP0
                          M       endif
                          M       if (PREV_BANK == 2)
                          M         bsf     STATUS, RP0
                          M         bcf     STATUS, RP1
                          M       endif
                          M       if (PREV_BANK == 3)
                          M         bcf     STATUS, RP1
                          M       endif
                          M PREV_BANK = 1
                          M     endif
                          M 
                          M     if (((_lightState) & 180h) == 100h)
                          M       if (PREV_BANK == 0)
                          M         bsf     STATUS, RP1
                          M       endif
                          M       if (PREV_BANK == 1)
MPASM 5.62                  PICBLINKTEST.ASM   11-26-2016  17:28:27         PAGE 14


LOC  OBJECT CODE     LINE SOURCE TEXT
  VALUE

                          M         bcf     STATUS, RP0
                          M         bsf     STATUS, RP1
                          M       endif
                          M       if (PREV_BANK == 3)
                          M         bcf     STATUS, RP0
                          M       endif
                          M PREV_BANK = 2
                          M     endif
                          M 
                          M     if (((_lightState) & 180h) == 180h)
                          M       if (PREV_BANK == 0)
                          M         bsf     STATUS, RP0
                          M         bsf     STATUS, RP1
                          M       endif
                          M       if (PREV_BANK == 1)
                          M         bsf     STATUS, RP1
                          M       endif
                          M       if (PREV_BANK == 2)
                          M         bsf     STATUS, RP0
                          M       endif
                          M PREV_BANK = 3
                          M     endif
                          M     if (low (000h) == 0)
0032   01BA               M         clrf    _lightState
                          M     else
                          M         movlw   low (000h)
                          M         movwf   _lightState
                          M     endif
                      00150 
                      00151 ; C:\PICPROGRAMS\PICBLINKTEST.BAS       00051   myloop:
                      00152 
                      00153         LABEL?L _myloop 
                          M         RST?RP
                          M     if ((PREV_BANK & 1) != 0)
                          M         bcf     STATUS, RP0
                          M     endif
                          M     if ((PREV_BANK & 2) != 0)
                          M         bcf     STATUS, RP1
                          M     endif
  00000000                M PREV_BANK = 0
                          M     ifdef PM_USED
                          M         LALL
                          M _myloop
                          M         XALL
                          M     else
0033                      M _myloop
                          M     endif
                      00154 
                      00155 ; C:\PICPROGRAMS\PICBLINKTEST.BAS       00053   if (SWITCHl == 1) then
                      00156         CMPNE?TCL       _SWITCHL, 001h, L00001
                          M     if ((001h) == 0)
                          M         CLRWDT?
                          M         BIT?GOTO 1, PORTA, 000h,  L00001
MPASM 5.62                  PICBLINKTEST.ASM   11-26-2016  17:28:27         PAGE 15


LOC  OBJECT CODE     LINE SOURCE TEXT
  VALUE

                          M     else
                          M       if ((001h) == 1)
                          M         CLRWDT?
                          M     ifndef NO_CLRWDT
0033   0064               M         clrwdt
                          M     endif
                          M         BIT?GOTO 0, PORTA, 000h,  L00001
                          M     ifdef USE_LINKER
                          M         CLRWDT?
                          M     else
                          M       if ($ == (L00001))
                          M         CLRWDT?
                          M       endif
                          M     endif
                          M 
                          M     ifdef USE_LINKER
                          M       if (CODE_SIZE > 2)
                          M         pagesel L00001
                          M       endif
                          M     else
                          M       if (CODE_SIZE > 2)
                          M         if (((L00001) & 800h) == 0)
0034   118A               M         bcf     PCLATH, 3
                          M         else
                          M         bsf     PCLATH, 3
                          M         endif
                          M       endif
                          M       if (CODE_SIZE > 4)
                          M         if (((L00001) & 1000h) == 0)
                          M         bcf     PCLATH, 4
                          M         else
                          M         bsf     PCLATH, 4
                          M         endif
                          M       endif
                          M     endif
                          M 
                          M     if (((PORTA) & 0ff80h) != 0)
                          M         CHK?RP  PORTA
                          M         bcf     STATUS, DC
                          M       if ((0)      == 0)
                          M         btfss   PORTA, 000h
                          M       else
                          M         btfsc   PORTA, 000h
                          M       endif
                          M         bsf     STATUS, DC
                          M         RST?RP
                          M         btfsc   STATUS, DC
                          M     else
                          M         RST?RP
                          M     if ((PREV_BANK & 1) != 0)
                          M         bcf     STATUS, RP0
                          M     endif
                          M     if ((PREV_BANK & 2) != 0)
MPASM 5.62                  PICBLINKTEST.ASM   11-26-2016  17:28:27         PAGE 16


LOC  OBJECT CODE     LINE SOURCE TEXT
  VALUE

                          M         bcf     STATUS, RP1
                          M     endif
  00000000                M PREV_BANK = 0
                          M       if ((0)      == 0)
0035   1C05               M         btfss   PORTA, 000h
                          M       else
                          M         btfsc   PORTA, 000h
                          M       endif
                          M     endif
                          M 
0036   284D               M         goto    L00001
                          M       else
                          M         L?GOTO  L00001
                          M       endif
                          M     endif
                      00157 
                      00158 ; C:\PICPROGRAMS\PICBLINKTEST.BAS       00055       if (lightstate==0) then 
                      00159         CMPNE?BCL       _lightState, 000h, L00003
                          M     if (((000h) > -100h) & ((000h) < 100h))
                          M         CLRWDT?
                          M     ifndef NO_CLRWDT
0037   0064               M         clrwdt
                          M     endif
                          M         MOVE?BA _lightState
                          M         CHK?RP  _lightState
                          M     if (((_lightState) & 180h) == 0)
                          M       if (PREV_BANK == 1)
                          M         bcf     STATUS, RP0
                          M       endif
                          M       if (PREV_BANK == 2)
                          M         bcf     STATUS, RP1
                          M       endif
                          M       if (PREV_BANK == 3)
                          M         bcf     STATUS, RP0
                          M         bcf     STATUS, RP1
                          M       endif
  00000000                M PREV_BANK = 0
                          M     endif
                          M 
                          M     if (((_lightState) & 180h) == 80h)
                          M       if (PREV_BANK == 0)
                          M         bsf     STATUS, RP0
                          M       endif
                          M       if (PREV_BANK == 2)
                          M         bsf     STATUS, RP0
                          M         bcf     STATUS, RP1
                          M       endif
                          M       if (PREV_BANK == 3)
                          M         bcf     STATUS, RP1
                          M       endif
                          M PREV_BANK = 1
                          M     endif
                          M 
MPASM 5.62                  PICBLINKTEST.ASM   11-26-2016  17:28:27         PAGE 17


LOC  OBJECT CODE     LINE SOURCE TEXT
  VALUE

                          M     if (((_lightState) & 180h) == 100h)
                          M       if (PREV_BANK == 0)
                          M         bsf     STATUS, RP1
                          M       endif
                          M       if (PREV_BANK == 1)
                          M         bcf     STATUS, RP0
                          M         bsf     STATUS, RP1
                          M       endif
                          M       if (PREV_BANK == 3)
                          M         bcf     STATUS, RP0
                          M       endif
                          M PREV_BANK = 2
                          M     endif
                          M 
                          M     if (((_lightState) & 180h) == 180h)
                          M       if (PREV_BANK == 0)
                          M         bsf     STATUS, RP0
                          M         bsf     STATUS, RP1
                          M       endif
                          M       if (PREV_BANK == 1)
                          M         bsf     STATUS, RP1
                          M       endif
                          M       if (PREV_BANK == 2)
                          M         bsf     STATUS, RP0
                          M       endif
                          M PREV_BANK = 3
                          M     endif
0038   083A               M         movf    _lightState, W
0039   3C00               M         sublw   000h
                          M         BIT?GOTO 0, STATUS, Z, L00003
                          M     ifdef USE_LINKER
                          M         CLRWDT?
                          M     else
                          M       if ($ == (L00003))
                          M         CLRWDT?
                          M       endif
                          M     endif
                          M 
                          M     ifdef USE_LINKER
                          M       if (CODE_SIZE > 2)
                          M         pagesel L00003
                          M       endif
                          M     else
                          M       if (CODE_SIZE > 2)
                          M         if (((L00003) & 800h) == 0)
003A   118A               M         bcf     PCLATH, 3
                          M         else
                          M         bsf     PCLATH, 3
                          M         endif
                          M       endif
                          M       if (CODE_SIZE > 4)
                          M         if (((L00003) & 1000h) == 0)
                          M         bcf     PCLATH, 4
MPASM 5.62                  PICBLINKTEST.ASM   11-26-2016  17:28:27         PAGE 18


LOC  OBJECT CODE     LINE SOURCE TEXT
  VALUE

                          M         else
                          M         bsf     PCLATH, 4
                          M         endif
                          M       endif
                          M     endif
                          M 
                          M     if (((STATUS) & 0ff80h) != 0)
                          M         CHK?RP  STATUS
                          M         bcf     STATUS, DC
                          M       if ((0)      == 0)
                          M         btfss   STATUS, Z
                          M       else
                          M         btfsc   STATUS, Z
                          M       endif
                          M         bsf     STATUS, DC
                          M         RST?RP
                          M         btfsc   STATUS, DC
                          M     else
                          M         RST?RP
                          M     if ((PREV_BANK & 1) != 0)
                          M         bcf     STATUS, RP0
                          M     endif
                          M     if ((PREV_BANK & 2) != 0)
                          M         bcf     STATUS, RP1
                          M     endif
  00000000                M PREV_BANK = 0
                          M       if ((0)      == 0)
003B   1D03               M         btfss   STATUS, Z
                          M       else
                          M         btfsc   STATUS, Z
                          M       endif
                          M     endif
                          M 
003C   284D               M         goto    L00003
                          M     else
                          M         L?GOTO  L00003
                          M     endif
                      00160 
                      00161 ; C:\PICPROGRAMS\PICBLINKTEST.BAS       00056           low LIGHT
                      00162         LOW?T   _LIGHT
                          M         MOVE?CT 0, PORTB, 000h
                          M         CHK?RP  PORTB
                          M     if (((PORTB) & 180h) == 0)
                          M       if (PREV_BANK == 1)
                          M         bcf     STATUS, RP0
                          M       endif
                          M       if (PREV_BANK == 2)
                          M         bcf     STATUS, RP1
                          M       endif
                          M       if (PREV_BANK == 3)
                          M         bcf     STATUS, RP0
                          M         bcf     STATUS, RP1
                          M       endif
MPASM 5.62                  PICBLINKTEST.ASM   11-26-2016  17:28:27         PAGE 19


LOC  OBJECT CODE     LINE SOURCE TEXT
  VALUE

  00000000                M PREV_BANK = 0
                          M     endif
                          M 
                          M     if (((PORTB) & 180h) == 80h)
                          M       if (PREV_BANK == 0)
                          M         bsf     STATUS, RP0
                          M       endif
                          M       if (PREV_BANK == 2)
                          M         bsf     STATUS, RP0
                          M         bcf     STATUS, RP1
                          M       endif
                          M       if (PREV_BANK == 3)
                          M         bcf     STATUS, RP1
                          M       endif
                          M PREV_BANK = 1
                          M     endif
                          M 
                          M     if (((PORTB) & 180h) == 100h)
                          M       if (PREV_BANK == 0)
                          M         bsf     STATUS, RP1
                          M       endif
                          M       if (PREV_BANK == 1)
                          M         bcf     STATUS, RP0
                          M         bsf     STATUS, RP1
                          M       endif
                          M       if (PREV_BANK == 3)
                          M         bcf     STATUS, RP0
                          M       endif
                          M PREV_BANK = 2
                          M     endif
                          M 
                          M     if (((PORTB) & 180h) == 180h)
                          M       if (PREV_BANK == 0)
                          M         bsf     STATUS, RP0
                          M         bsf     STATUS, RP1
                          M       endif
                          M       if (PREV_BANK == 1)
                          M         bsf     STATUS, RP1
                          M       endif
                          M       if (PREV_BANK == 2)
                          M         bsf     STATUS, RP0
                          M       endif
                          M PREV_BANK = 3
                          M     endif
                          M     if (((0)   & 1) == 1)
                          M         bsf     PORTB,  000h
                          M     else
003D   1006               M         bcf     PORTB,  000h
                          M     endif
                          M         MOVE?CT 0, ((PORTB) + 80h), 000h
                          M         CHK?RP  ((PORTB) + 80h)
                          M     if (((((PORTB) + 80h)) & 180h) == 0)
                          M       if (PREV_BANK == 1)
MPASM 5.62                  PICBLINKTEST.ASM   11-26-2016  17:28:27         PAGE 20


LOC  OBJECT CODE     LINE SOURCE TEXT
  VALUE

                          M         bcf     STATUS, RP0
                          M       endif
                          M       if (PREV_BANK == 2)
                          M         bcf     STATUS, RP1
                          M       endif
                          M       if (PREV_BANK == 3)
                          M         bcf     STATUS, RP0
                          M         bcf     STATUS, RP1
                          M       endif
                          M PREV_BANK = 0
                          M     endif
                          M 
                          M     if (((((PORTB) + 80h)) & 180h) == 80h)
                          M       if (PREV_BANK == 0)
003E   1683               M         bsf     STATUS, RP0
                          M       endif
                          M       if (PREV_BANK == 2)
                          M         bsf     STATUS, RP0
                          M         bcf     STATUS, RP1
                          M       endif
                          M       if (PREV_BANK == 3)
                          M         bcf     STATUS, RP1
                          M       endif
  00000001                M PREV_BANK = 1
                          M     endif
                          M 
                          M     if (((((PORTB) + 80h)) & 180h) == 100h)
                          M       if (PREV_BANK == 0)
                          M         bsf     STATUS, RP1
                          M       endif
                          M       if (PREV_BANK == 1)
                          M         bcf     STATUS, RP0
                          M         bsf     STATUS, RP1
                          M       endif
                          M       if (PREV_BANK == 3)
                          M         bcf     STATUS, RP0
                          M       endif
                          M PREV_BANK = 2
                          M     endif
                          M 
                          M     if (((((PORTB) + 80h)) & 180h) == 180h)
                          M       if (PREV_BANK == 0)
                          M         bsf     STATUS, RP0
                          M         bsf     STATUS, RP1
                          M       endif
                          M       if (PREV_BANK == 1)
                          M         bsf     STATUS, RP1
                          M       endif
                          M       if (PREV_BANK == 2)
                          M         bsf     STATUS, RP0
                          M       endif
                          M PREV_BANK = 3
                          M     endif
MPASM 5.62                  PICBLINKTEST.ASM   11-26-2016  17:28:27         PAGE 21


LOC  OBJECT CODE     LINE SOURCE TEXT
  VALUE

                          M     if (((0)   & 1) == 1)
                          M         bsf     ((PORTB) + 80h), 000h
                          M     else
003F   1006               M         bcf     ((PORTB) + 80h), 000h
                          M     endif
                      00163 
                      00164 ; C:\PICPROGRAMS\PICBLINKTEST.BAS       00057           pause lightdelay
                      00165         PAUSE?B _lightDelay
                          M         MOVE?BA _lightDelay
                          M         CHK?RP  _lightDelay
                          M     if (((_lightDelay) & 180h) == 0)
                          M       if (PREV_BANK == 1)
0040   1283               M         bcf     STATUS, RP0
                          M       endif
                          M       if (PREV_BANK == 2)
                          M         bcf     STATUS, RP1
                          M       endif
                          M       if (PREV_BANK == 3)
                          M         bcf     STATUS, RP0
                          M         bcf     STATUS, RP1
                          M       endif
  00000000                M PREV_BANK = 0
                          M     endif
                          M 
                          M     if (((_lightDelay) & 180h) == 80h)
                          M       if (PREV_BANK == 0)
                          M         bsf     STATUS, RP0
                          M       endif
                          M       if (PREV_BANK == 2)
                          M         bsf     STATUS, RP0
                          M         bcf     STATUS, RP1
                          M       endif
                          M       if (PREV_BANK == 3)
                          M         bcf     STATUS, RP1
                          M       endif
                          M PREV_BANK = 1
                          M     endif
                          M 
                          M     if (((_lightDelay) & 180h) == 100h)
                          M       if (PREV_BANK == 0)
                          M         bsf     STATUS, RP1
                          M       endif
                          M       if (PREV_BANK == 1)
                          M         bcf     STATUS, RP0
                          M         bsf     STATUS, RP1
                          M       endif
                          M       if (PREV_BANK == 3)
                          M         bcf     STATUS, RP0
                          M       endif
                          M PREV_BANK = 2
                          M     endif
                          M 
                          M     if (((_lightDelay) & 180h) == 180h)
MPASM 5.62                  PICBLINKTEST.ASM   11-26-2016  17:28:27         PAGE 22


LOC  OBJECT CODE     LINE SOURCE TEXT
  VALUE

                          M       if (PREV_BANK == 0)
                          M         bsf     STATUS, RP0
                          M         bsf     STATUS, RP1
                          M       endif
                          M       if (PREV_BANK == 1)
                          M         bsf     STATUS, RP1
                          M       endif
                          M       if (PREV_BANK == 2)
                          M         bsf     STATUS, RP0
                          M       endif
                          M PREV_BANK = 3
                          M     endif
0041   0839               M         movf    _lightDelay, W
                          M         L?CALL  PAUSE
                          M         RST?RP
                          M     if ((PREV_BANK & 1) != 0)
                          M         bcf     STATUS, RP0
                          M     endif
                          M     if ((PREV_BANK & 2) != 0)
                          M         bcf     STATUS, RP1
                          M     endif
  00000000                M PREV_BANK = 0
                          M 
                          M     ifdef USE_LINKER
                          M       if (CODE_SIZE > 2)
                          M         pagesel PAUSE
                          M       endif
                          M     else
                          M       if ((PAUSE) < 1)
                          M         if (CODE_SIZE > 2)
                          M           if (((PAUSE) & 800h) == 0)
                          M         bcf     PCLATH, 3
                          M         else
                          M         bsf     PCLATH, 3
                          M         endif
                          M         endif
                          M         if (CODE_SIZE > 4)
                          M           if (((PAUSE) & 1000h) == 0)
                          M         bcf     PCLATH, 4
                          M           else
                          M         bsf     PCLATH, 4
                          M           endif
                          M         endif
                          M       else
                          M         if ((PAUSE) > $)
                          M           if (CODE_SIZE > 2)
                          M             if (((PAUSE) & 800h) == 0)
                          M         bcf     PCLATH, 3
                          M             else
                          M         bsf     PCLATH, 3
                          M             endif
                          M           endif
                          M           if (CODE_SIZE > 4)
MPASM 5.62                  PICBLINKTEST.ASM   11-26-2016  17:28:27         PAGE 23


LOC  OBJECT CODE     LINE SOURCE TEXT
  VALUE

                          M             if (((PAUSE) & 1000h) == 0)
                          M         bcf     PCLATH, 4
                          M             else
                          M         bsf     PCLATH, 4
                          M             endif
                          M           endif
                          M         else
                          M           if (CODE_SIZE > 2)
                          M             if (((PAUSE) & 1800h) == 0)
0042   018A               M         clrf    PCLATH
                          M             else
                          M               if (((PAUSE) & 800h) == 0)
                          M         bcf     PCLATH, 3
                          M               else
                          M         bsf     PCLATH, 3
                          M               endif
                          M               if (CODE_SIZE > 4)
                          M                 if (((PAUSE) & 1000h) == 0)
                          M         bcf     PCLATH, 4
                          M                 else
                          M         bsf     PCLATH, 4
                          M                 endif   
                          M               endif
                          M             endif
                          M           endif
                          M         endif
                          M       endif
                          M     endif
                          M 
0043   2001               M         call    PAUSE
                      00166 
                      00167 ; C:\PICPROGRAMS\PICBLINKTEST.BAS       00058           high LIGHT
                      00168         HIGH?T  _LIGHT
                          M         MOVE?CT 1, PORTB, 000h
                          M         CHK?RP  PORTB
                          M     if (((PORTB) & 180h) == 0)
                          M       if (PREV_BANK == 1)
                          M         bcf     STATUS, RP0
                          M       endif
                          M       if (PREV_BANK == 2)
                          M         bcf     STATUS, RP1
                          M       endif
                          M       if (PREV_BANK == 3)
                          M         bcf     STATUS, RP0
                          M         bcf     STATUS, RP1
                          M       endif
  00000000                M PREV_BANK = 0
                          M     endif
                          M 
                          M     if (((PORTB) & 180h) == 80h)
                          M       if (PREV_BANK == 0)
                          M         bsf     STATUS, RP0
                          M       endif
MPASM 5.62                  PICBLINKTEST.ASM   11-26-2016  17:28:27         PAGE 24


LOC  OBJECT CODE     LINE SOURCE TEXT
  VALUE

                          M       if (PREV_BANK == 2)
                          M         bsf     STATUS, RP0
                          M         bcf     STATUS, RP1
                          M       endif
                          M       if (PREV_BANK == 3)
                          M         bcf     STATUS, RP1
                          M       endif
                          M PREV_BANK = 1
                          M     endif
                          M 
                          M     if (((PORTB) & 180h) == 100h)
                          M       if (PREV_BANK == 0)
                          M         bsf     STATUS, RP1
                          M       endif
                          M       if (PREV_BANK == 1)
                          M         bcf     STATUS, RP0
                          M         bsf     STATUS, RP1
                          M       endif
                          M       if (PREV_BANK == 3)
                          M         bcf     STATUS, RP0
                          M       endif
                          M PREV_BANK = 2
                          M     endif
                          M 
                          M     if (((PORTB) & 180h) == 180h)
                          M       if (PREV_BANK == 0)
                          M         bsf     STATUS, RP0
                          M         bsf     STATUS, RP1
                          M       endif
                          M       if (PREV_BANK == 1)
                          M         bsf     STATUS, RP1
                          M       endif
                          M       if (PREV_BANK == 2)
                          M         bsf     STATUS, RP0
                          M       endif
                          M PREV_BANK = 3
                          M     endif
                          M     if (((1)   & 1) == 1)
0044   1406               M         bsf     PORTB,  000h
                          M     else
                          M         bcf     PORTB,  000h
                          M     endif
                          M         MOVE?CT 0, ((PORTB) + 80h), 000h
                          M         CHK?RP  ((PORTB) + 80h)
                          M     if (((((PORTB) + 80h)) & 180h) == 0)
                          M       if (PREV_BANK == 1)
                          M         bcf     STATUS, RP0
                          M       endif
                          M       if (PREV_BANK == 2)
                          M         bcf     STATUS, RP1
                          M       endif
                          M       if (PREV_BANK == 3)
                          M         bcf     STATUS, RP0
MPASM 5.62                  PICBLINKTEST.ASM   11-26-2016  17:28:27         PAGE 25


LOC  OBJECT CODE     LINE SOURCE TEXT
  VALUE

                          M         bcf     STATUS, RP1
                          M       endif
                          M PREV_BANK = 0
                          M     endif
                          M 
                          M     if (((((PORTB) + 80h)) & 180h) == 80h)
                          M       if (PREV_BANK == 0)
0045   1683               M         bsf     STATUS, RP0
                          M       endif
                          M       if (PREV_BANK == 2)
                          M         bsf     STATUS, RP0
                          M         bcf     STATUS, RP1
                          M       endif
                          M       if (PREV_BANK == 3)
                          M         bcf     STATUS, RP1
                          M       endif
  00000001                M PREV_BANK = 1
                          M     endif
                          M 
                          M     if (((((PORTB) + 80h)) & 180h) == 100h)
                          M       if (PREV_BANK == 0)
                          M         bsf     STATUS, RP1
                          M       endif
                          M       if (PREV_BANK == 1)
                          M         bcf     STATUS, RP0
                          M         bsf     STATUS, RP1
                          M       endif
                          M       if (PREV_BANK == 3)
                          M         bcf     STATUS, RP0
                          M       endif
                          M PREV_BANK = 2
                          M     endif
                          M 
                          M     if (((((PORTB) + 80h)) & 180h) == 180h)
                          M       if (PREV_BANK == 0)
                          M         bsf     STATUS, RP0
                          M         bsf     STATUS, RP1
                          M       endif
                          M       if (PREV_BANK == 1)
                          M         bsf     STATUS, RP1
                          M       endif
                          M       if (PREV_BANK == 2)
                          M         bsf     STATUS, RP0
                          M       endif
                          M PREV_BANK = 3
                          M     endif
                          M     if (((0)   & 1) == 1)
                          M         bsf     ((PORTB) + 80h), 000h
                          M     else
0046   1006               M         bcf     ((PORTB) + 80h), 000h
                          M     endif
                      00169 
                      00170 ; C:\PICPROGRAMS\PICBLINKTEST.BAS       00059           pause lightdelay
MPASM 5.62                  PICBLINKTEST.ASM   11-26-2016  17:28:27         PAGE 26


LOC  OBJECT CODE     LINE SOURCE TEXT
  VALUE

                      00171         PAUSE?B _lightDelay
                          M         MOVE?BA _lightDelay
                          M         CHK?RP  _lightDelay
                          M     if (((_lightDelay) & 180h) == 0)
                          M       if (PREV_BANK == 1)
0047   1283               M         bcf     STATUS, RP0
                          M       endif
                          M       if (PREV_BANK == 2)
                          M         bcf     STATUS, RP1
                          M       endif
                          M       if (PREV_BANK == 3)
                          M         bcf     STATUS, RP0
                          M         bcf     STATUS, RP1
                          M       endif
  00000000                M PREV_BANK = 0
                          M     endif
                          M 
                          M     if (((_lightDelay) & 180h) == 80h)
                          M       if (PREV_BANK == 0)
                          M         bsf     STATUS, RP0
                          M       endif
                          M       if (PREV_BANK == 2)
                          M         bsf     STATUS, RP0
                          M         bcf     STATUS, RP1
                          M       endif
                          M       if (PREV_BANK == 3)
                          M         bcf     STATUS, RP1
                          M       endif
                          M PREV_BANK = 1
                          M     endif
                          M 
                          M     if (((_lightDelay) & 180h) == 100h)
                          M       if (PREV_BANK == 0)
                          M         bsf     STATUS, RP1
                          M       endif
                          M       if (PREV_BANK == 1)
                          M         bcf     STATUS, RP0
                          M         bsf     STATUS, RP1
                          M       endif
                          M       if (PREV_BANK == 3)
                          M         bcf     STATUS, RP0
                          M       endif
                          M PREV_BANK = 2
                          M     endif
                          M 
                          M     if (((_lightDelay) & 180h) == 180h)
                          M       if (PREV_BANK == 0)
                          M         bsf     STATUS, RP0
                          M         bsf     STATUS, RP1
                          M       endif
                          M       if (PREV_BANK == 1)
                          M         bsf     STATUS, RP1
                          M       endif
MPASM 5.62                  PICBLINKTEST.ASM   11-26-2016  17:28:27         PAGE 27


LOC  OBJECT CODE     LINE SOURCE TEXT
  VALUE

                          M       if (PREV_BANK == 2)
                          M         bsf     STATUS, RP0
                          M       endif
                          M PREV_BANK = 3
                          M     endif
0048   0839               M         movf    _lightDelay, W
                          M         L?CALL  PAUSE
                          M         RST?RP
                          M     if ((PREV_BANK & 1) != 0)
                          M         bcf     STATUS, RP0
                          M     endif
                          M     if ((PREV_BANK & 2) != 0)
                          M         bcf     STATUS, RP1
                          M     endif
  00000000                M PREV_BANK = 0
                          M 
                          M     ifdef USE_LINKER
                          M       if (CODE_SIZE > 2)
                          M         pagesel PAUSE
                          M       endif
                          M     else
                          M       if ((PAUSE) < 1)
                          M         if (CODE_SIZE > 2)
                          M           if (((PAUSE) & 800h) == 0)
                          M         bcf     PCLATH, 3
                          M         else
                          M         bsf     PCLATH, 3
                          M         endif
                          M         endif
                          M         if (CODE_SIZE > 4)
                          M           if (((PAUSE) & 1000h) == 0)
                          M         bcf     PCLATH, 4
                          M           else
                          M         bsf     PCLATH, 4
                          M           endif
                          M         endif
                          M       else
                          M         if ((PAUSE) > $)
                          M           if (CODE_SIZE > 2)
                          M             if (((PAUSE) & 800h) == 0)
                          M         bcf     PCLATH, 3
                          M             else
                          M         bsf     PCLATH, 3
                          M             endif
                          M           endif
                          M           if (CODE_SIZE > 4)
                          M             if (((PAUSE) & 1000h) == 0)
                          M         bcf     PCLATH, 4
                          M             else
                          M         bsf     PCLATH, 4
                          M             endif
                          M           endif
                          M         else
MPASM 5.62                  PICBLINKTEST.ASM   11-26-2016  17:28:27         PAGE 28


LOC  OBJECT CODE     LINE SOURCE TEXT
  VALUE

                          M           if (CODE_SIZE > 2)
                          M             if (((PAUSE) & 1800h) == 0)
0049   018A               M         clrf    PCLATH
                          M             else
                          M               if (((PAUSE) & 800h) == 0)
                          M         bcf     PCLATH, 3
                          M               else
                          M         bsf     PCLATH, 3
                          M               endif
                          M               if (CODE_SIZE > 4)
                          M                 if (((PAUSE) & 1000h) == 0)
                          M         bcf     PCLATH, 4
                          M                 else
                          M         bsf     PCLATH, 4
                          M                 endif   
                          M               endif
                          M             endif
                          M           endif
                          M         endif
                          M       endif
                          M     endif
                          M 
004A   2001               M         call    PAUSE
                      00172 
                      00173 ; C:\PICPROGRAMS\PICBLINKTEST.BAS       00060           lightState = 1
                      00174         MOVE?CB 001h, _lightState
                          M         CHK?RP  _lightState
                          M     if (((_lightState) & 180h) == 0)
                          M       if (PREV_BANK == 1)
                          M         bcf     STATUS, RP0
                          M       endif
                          M       if (PREV_BANK == 2)
                          M         bcf     STATUS, RP1
                          M       endif
                          M       if (PREV_BANK == 3)
                          M         bcf     STATUS, RP0
                          M         bcf     STATUS, RP1
                          M       endif
  00000000                M PREV_BANK = 0
                          M     endif
                          M 
                          M     if (((_lightState) & 180h) == 80h)
                          M       if (PREV_BANK == 0)
                          M         bsf     STATUS, RP0
                          M       endif
                          M       if (PREV_BANK == 2)
                          M         bsf     STATUS, RP0
                          M         bcf     STATUS, RP1
                          M       endif
                          M       if (PREV_BANK == 3)
                          M         bcf     STATUS, RP1
                          M       endif
                          M PREV_BANK = 1
MPASM 5.62                  PICBLINKTEST.ASM   11-26-2016  17:28:27         PAGE 29


LOC  OBJECT CODE     LINE SOURCE TEXT
  VALUE

                          M     endif
                          M 
                          M     if (((_lightState) & 180h) == 100h)
                          M       if (PREV_BANK == 0)
                          M         bsf     STATUS, RP1
                          M       endif
                          M       if (PREV_BANK == 1)
                          M         bcf     STATUS, RP0
                          M         bsf     STATUS, RP1
                          M       endif
                          M       if (PREV_BANK == 3)
                          M         bcf     STATUS, RP0
                          M       endif
                          M PREV_BANK = 2
                          M     endif
                          M 
                          M     if (((_lightState) & 180h) == 180h)
                          M       if (PREV_BANK == 0)
                          M         bsf     STATUS, RP0
                          M         bsf     STATUS, RP1
                          M       endif
                          M       if (PREV_BANK == 1)
                          M         bsf     STATUS, RP1
                          M       endif
                          M       if (PREV_BANK == 2)
                          M         bsf     STATUS, RP0
                          M       endif
                          M PREV_BANK = 3
                          M     endif
                          M     if (low (001h) == 0)
                          M         clrf    _lightState
                          M     else
004B   3001               M         movlw   low (001h)
004C   00BA               M         movwf   _lightState
                          M     endif
                      00175 
                      00176 ; C:\PICPROGRAMS\PICBLINKTEST.BAS       00061       endif
                      00177         LABEL?L L00003  
                          M         RST?RP
                          M     if ((PREV_BANK & 1) != 0)
                          M         bcf     STATUS, RP0
                          M     endif
                          M     if ((PREV_BANK & 2) != 0)
                          M         bcf     STATUS, RP1
                          M     endif
  00000000                M PREV_BANK = 0
                          M     ifdef PM_USED
                          M         LALL
                          M L00003
                          M         XALL
                          M     else
004D                      M L00003
                          M     endif
MPASM 5.62                  PICBLINKTEST.ASM   11-26-2016  17:28:27         PAGE 30


LOC  OBJECT CODE     LINE SOURCE TEXT
  VALUE

                      00178 
                      00179 ; C:\PICPROGRAMS\PICBLINKTEST.BAS       00062   endif
                      00180         LABEL?L L00001  
                          M         RST?RP
                          M     if ((PREV_BANK & 1) != 0)
                          M         bcf     STATUS, RP0
                          M     endif
                          M     if ((PREV_BANK & 2) != 0)
                          M         bcf     STATUS, RP1
                          M     endif
  00000000                M PREV_BANK = 0
                          M     ifdef PM_USED
                          M         LALL
                          M L00001
                          M         XALL
                          M     else
004D                      M L00001
                          M     endif
                      00181 
                      00182 ; C:\PICPROGRAMS\PICBLINKTEST.BAS       00064   if (SWITCHR == 1) then 
                      00183         CMPNE?TCL       _SWITCHR, 001h, L00005
                          M     if ((001h) == 0)
                          M         CLRWDT?
                          M         BIT?GOTO 1, PORTA, 001h,  L00005
                          M     else
                          M       if ((001h) == 1)
                          M         CLRWDT?
                          M     ifndef NO_CLRWDT
004D   0064               M         clrwdt
                          M     endif
                          M         BIT?GOTO 0, PORTA, 001h,  L00005
                          M     ifdef USE_LINKER
                          M         CLRWDT?
                          M     else
                          M       if ($ == (L00005))
                          M         CLRWDT?
                          M       endif
                          M     endif
                          M 
                          M     ifdef USE_LINKER
                          M       if (CODE_SIZE > 2)
                          M         pagesel L00005
                          M       endif
                          M     else
                          M       if (CODE_SIZE > 2)
                          M         if (((L00005) & 800h) == 0)
004E   118A               M         bcf     PCLATH, 3
                          M         else
                          M         bsf     PCLATH, 3
                          M         endif
                          M       endif
                          M       if (CODE_SIZE > 4)
                          M         if (((L00005) & 1000h) == 0)
MPASM 5.62                  PICBLINKTEST.ASM   11-26-2016  17:28:27         PAGE 31


LOC  OBJECT CODE     LINE SOURCE TEXT
  VALUE

                          M         bcf     PCLATH, 4
                          M         else
                          M         bsf     PCLATH, 4
                          M         endif
                          M       endif
                          M     endif
                          M 
                          M     if (((PORTA) & 0ff80h) != 0)
                          M         CHK?RP  PORTA
                          M         bcf     STATUS, DC
                          M       if ((0)      == 0)
                          M         btfss   PORTA, 001h
                          M       else
                          M         btfsc   PORTA, 001h
                          M       endif
                          M         bsf     STATUS, DC
                          M         RST?RP
                          M         btfsc   STATUS, DC
                          M     else
                          M         RST?RP
                          M     if ((PREV_BANK & 1) != 0)
                          M         bcf     STATUS, RP0
                          M     endif
                          M     if ((PREV_BANK & 2) != 0)
                          M         bcf     STATUS, RP1
                          M     endif
  00000000                M PREV_BANK = 0
                          M       if ((0)      == 0)
004F   1C85               M         btfss   PORTA, 001h
                          M       else
                          M         btfsc   PORTA, 001h
                          M       endif
                          M     endif
                          M 
0050   2872               M         goto    L00005
                          M       else
                          M         L?GOTO  L00005
                          M       endif
                          M     endif
                      00184 
                      00185 ; C:\PICPROGRAMS\PICBLINKTEST.BAS       00066       if (lightstate==1) then
                      00186         CMPNE?BCL       _lightState, 001h, L00007
                          M     if (((001h) > -100h) & ((001h) < 100h))
                          M         CLRWDT?
                          M     ifndef NO_CLRWDT
0051   0064               M         clrwdt
                          M     endif
                          M         MOVE?BA _lightState
                          M         CHK?RP  _lightState
                          M     if (((_lightState) & 180h) == 0)
                          M       if (PREV_BANK == 1)
                          M         bcf     STATUS, RP0
                          M       endif
MPASM 5.62                  PICBLINKTEST.ASM   11-26-2016  17:28:27         PAGE 32


LOC  OBJECT CODE     LINE SOURCE TEXT
  VALUE

                          M       if (PREV_BANK == 2)
                          M         bcf     STATUS, RP1
                          M       endif
                          M       if (PREV_BANK == 3)
                          M         bcf     STATUS, RP0
                          M         bcf     STATUS, RP1
                          M       endif
  00000000                M PREV_BANK = 0
                          M     endif
                          M 
                          M     if (((_lightState) & 180h) == 80h)
                          M       if (PREV_BANK == 0)
                          M         bsf     STATUS, RP0
                          M       endif
                          M       if (PREV_BANK == 2)
                          M         bsf     STATUS, RP0
                          M         bcf     STATUS, RP1
                          M       endif
                          M       if (PREV_BANK == 3)
                          M         bcf     STATUS, RP1
                          M       endif
                          M PREV_BANK = 1
                          M     endif
                          M 
                          M     if (((_lightState) & 180h) == 100h)
                          M       if (PREV_BANK == 0)
                          M         bsf     STATUS, RP1
                          M       endif
                          M       if (PREV_BANK == 1)
                          M         bcf     STATUS, RP0
                          M         bsf     STATUS, RP1
                          M       endif
                          M       if (PREV_BANK == 3)
                          M         bcf     STATUS, RP0
                          M       endif
                          M PREV_BANK = 2
                          M     endif
                          M 
                          M     if (((_lightState) & 180h) == 180h)
                          M       if (PREV_BANK == 0)
                          M         bsf     STATUS, RP0
                          M         bsf     STATUS, RP1
                          M       endif
                          M       if (PREV_BANK == 1)
                          M         bsf     STATUS, RP1
                          M       endif
                          M       if (PREV_BANK == 2)
                          M         bsf     STATUS, RP0
                          M       endif
                          M PREV_BANK = 3
                          M     endif
0052   083A               M         movf    _lightState, W
0053   3C01               M         sublw   001h
MPASM 5.62                  PICBLINKTEST.ASM   11-26-2016  17:28:27         PAGE 33


LOC  OBJECT CODE     LINE SOURCE TEXT
  VALUE

                          M         BIT?GOTO 0, STATUS, Z, L00007
                          M     ifdef USE_LINKER
                          M         CLRWDT?
                          M     else
                          M       if ($ == (L00007))
                          M         CLRWDT?
                          M       endif
                          M     endif
                          M 
                          M     ifdef USE_LINKER
                          M       if (CODE_SIZE > 2)
                          M         pagesel L00007
                          M       endif
                          M     else
                          M       if (CODE_SIZE > 2)
                          M         if (((L00007) & 800h) == 0)
0054   118A               M         bcf     PCLATH, 3
                          M         else
                          M         bsf     PCLATH, 3
                          M         endif
                          M       endif
                          M       if (CODE_SIZE > 4)
                          M         if (((L00007) & 1000h) == 0)
                          M         bcf     PCLATH, 4
                          M         else
                          M         bsf     PCLATH, 4
                          M         endif
                          M       endif
                          M     endif
                          M 
                          M     if (((STATUS) & 0ff80h) != 0)
                          M         CHK?RP  STATUS
                          M         bcf     STATUS, DC
                          M       if ((0)      == 0)
                          M         btfss   STATUS, Z
                          M       else
                          M         btfsc   STATUS, Z
                          M       endif
                          M         bsf     STATUS, DC
                          M         RST?RP
                          M         btfsc   STATUS, DC
                          M     else
                          M         RST?RP
                          M     if ((PREV_BANK & 1) != 0)
                          M         bcf     STATUS, RP0
                          M     endif
                          M     if ((PREV_BANK & 2) != 0)
                          M         bcf     STATUS, RP1
                          M     endif
  00000000                M PREV_BANK = 0
                          M       if ((0)      == 0)
0055   1D03               M         btfss   STATUS, Z
                          M       else
MPASM 5.62                  PICBLINKTEST.ASM   11-26-2016  17:28:27         PAGE 34


LOC  OBJECT CODE     LINE SOURCE TEXT
  VALUE

                          M         btfsc   STATUS, Z
                          M       endif
                          M     endif
                          M 
0056   2872               M         goto    L00007
                          M     else
                          M         L?GOTO  L00007
                          M     endif
                      00187 
                      00188 ; C:\PICPROGRAMS\PICBLINKTEST.BAS       00068           For I = 1 to 3
                      00189         MOVE?CB 001h, _I
                          M         CHK?RP  _I
                          M     if (((_I)    & 180h) == 0)
                          M       if (PREV_BANK == 1)
                          M         bcf     STATUS, RP0
                          M       endif
                          M       if (PREV_BANK == 2)
                          M         bcf     STATUS, RP1
                          M       endif
                          M       if (PREV_BANK == 3)
                          M         bcf     STATUS, RP0
                          M         bcf     STATUS, RP1
                          M       endif
  00000000                M PREV_BANK = 0
                          M     endif
                          M 
                          M     if (((_I)    & 180h) == 80h)
                          M       if (PREV_BANK == 0)
                          M         bsf     STATUS, RP0
                          M       endif
                          M       if (PREV_BANK == 2)
                          M         bsf     STATUS, RP0
                          M         bcf     STATUS, RP1
                          M       endif
                          M       if (PREV_BANK == 3)
                          M         bcf     STATUS, RP1
                          M       endif
                          M PREV_BANK = 1
                          M     endif
                          M 
                          M     if (((_I)    & 180h) == 100h)
                          M       if (PREV_BANK == 0)
                          M         bsf     STATUS, RP1
                          M       endif
                          M       if (PREV_BANK == 1)
                          M         bcf     STATUS, RP0
                          M         bsf     STATUS, RP1
                          M       endif
                          M       if (PREV_BANK == 3)
                          M         bcf     STATUS, RP0
                          M       endif
                          M PREV_BANK = 2
                          M     endif
MPASM 5.62                  PICBLINKTEST.ASM   11-26-2016  17:28:27         PAGE 35


LOC  OBJECT CODE     LINE SOURCE TEXT
  VALUE

                          M 
                          M     if (((_I)    & 180h) == 180h)
                          M       if (PREV_BANK == 0)
                          M         bsf     STATUS, RP0
                          M         bsf     STATUS, RP1
                          M       endif
                          M       if (PREV_BANK == 1)
                          M         bsf     STATUS, RP1
                          M       endif
                          M       if (PREV_BANK == 2)
                          M         bsf     STATUS, RP0
                          M       endif
                          M PREV_BANK = 3
                          M     endif
                          M     if (low (001h) == 0)
                          M         clrf    _I
                          M     else
0057   3001               M         movlw   low (001h)
0058   00B8               M         movwf   _I
                          M     endif
                      00190         LABEL?L L00009  
                          M         RST?RP
                          M     if ((PREV_BANK & 1) != 0)
                          M         bcf     STATUS, RP0
                          M     endif
                          M     if ((PREV_BANK & 2) != 0)
                          M         bcf     STATUS, RP1
                          M     endif
  00000000                M PREV_BANK = 0
                          M     ifdef PM_USED
                          M         LALL
                          M L00009
                          M         XALL
                          M     else
0059                      M L00009
                          M     endif
                      00191         CMPGT?BCL       _I, 003h, L00010
                          M     if ((003h) < 0)
                          M         L?GOTO  L00010
                          M     else
                          M       if ((003h) < 0ffh)
                          M         CLRWDT?
                          M     ifndef NO_CLRWDT
0059   0064               M         clrwdt
                          M     endif
                          M         MOVE?CA (003h) + 1
005A   3004               M         movlw   low ((003h) + 1)
                          M         CHK?RP  _I
                          M     if (((_I)    & 180h) == 0)
                          M       if (PREV_BANK == 1)
                          M         bcf     STATUS, RP0
                          M       endif
                          M       if (PREV_BANK == 2)
MPASM 5.62                  PICBLINKTEST.ASM   11-26-2016  17:28:27         PAGE 36


LOC  OBJECT CODE     LINE SOURCE TEXT
  VALUE

                          M         bcf     STATUS, RP1
                          M       endif
                          M       if (PREV_BANK == 3)
                          M         bcf     STATUS, RP0
                          M         bcf     STATUS, RP1
                          M       endif
  00000000                M PREV_BANK = 0
                          M     endif
                          M 
                          M     if (((_I)    & 180h) == 80h)
                          M       if (PREV_BANK == 0)
                          M         bsf     STATUS, RP0
                          M       endif
                          M       if (PREV_BANK == 2)
                          M         bsf     STATUS, RP0
                          M         bcf     STATUS, RP1
                          M       endif
                          M       if (PREV_BANK == 3)
                          M         bcf     STATUS, RP1
                          M       endif
                          M PREV_BANK = 1
                          M     endif
                          M 
                          M     if (((_I)    & 180h) == 100h)
                          M       if (PREV_BANK == 0)
                          M         bsf     STATUS, RP1
                          M       endif
                          M       if (PREV_BANK == 1)
                          M         bcf     STATUS, RP0
                          M         bsf     STATUS, RP1
                          M       endif
                          M       if (PREV_BANK == 3)
                          M         bcf     STATUS, RP0
                          M       endif
                          M PREV_BANK = 2
                          M     endif
                          M 
                          M     if (((_I)    & 180h) == 180h)
                          M       if (PREV_BANK == 0)
                          M         bsf     STATUS, RP0
                          M         bsf     STATUS, RP1
                          M       endif
                          M       if (PREV_BANK == 1)
                          M         bsf     STATUS, RP1
                          M       endif
                          M       if (PREV_BANK == 2)
                          M         bsf     STATUS, RP0
                          M       endif
                          M PREV_BANK = 3
                          M     endif
005B   0238               M         subwf   _I,  W
                          M         BIT?GOTO 1, STATUS, C, L00010
                          M     ifdef USE_LINKER
MPASM 5.62                  PICBLINKTEST.ASM   11-26-2016  17:28:27         PAGE 37


LOC  OBJECT CODE     LINE SOURCE TEXT
  VALUE

                          M         CLRWDT?
                          M     else
                          M       if ($ == (L00010))
                          M         CLRWDT?
                          M       endif
                          M     endif
                          M 
                          M     ifdef USE_LINKER
                          M       if (CODE_SIZE > 2)
                          M         pagesel L00010
                          M       endif
                          M     else
                          M       if (CODE_SIZE > 2)
                          M         if (((L00010) & 800h) == 0)
005C   118A               M         bcf     PCLATH, 3
                          M         else
                          M         bsf     PCLATH, 3
                          M         endif
                          M       endif
                          M       if (CODE_SIZE > 4)
                          M         if (((L00010) & 1000h) == 0)
                          M         bcf     PCLATH, 4
                          M         else
                          M         bsf     PCLATH, 4
                          M         endif
                          M       endif
                          M     endif
                          M 
                          M     if (((STATUS) & 0ff80h) != 0)
                          M         CHK?RP  STATUS
                          M         bcf     STATUS, DC
                          M       if ((1)      == 0)
                          M         btfss   STATUS, C
                          M       else
                          M         btfsc   STATUS, C
                          M       endif
                          M         bsf     STATUS, DC
                          M         RST?RP
                          M         btfsc   STATUS, DC
                          M     else
                          M         RST?RP
                          M     if ((PREV_BANK & 1) != 0)
                          M         bcf     STATUS, RP0
                          M     endif
                          M     if ((PREV_BANK & 2) != 0)
                          M         bcf     STATUS, RP1
                          M     endif
  00000000                M PREV_BANK = 0
                          M       if ((1)      == 0)
                          M         btfss   STATUS, C
                          M       else
005D   1803               M         btfsc   STATUS, C
                          M       endif
MPASM 5.62                  PICBLINKTEST.ASM   11-26-2016  17:28:27         PAGE 38


LOC  OBJECT CODE     LINE SOURCE TEXT
  VALUE

                          M     endif
                          M 
005E   2871               M         goto    L00010
                          M       endif
                          M     endif
                      00192 
                      00193 ; C:\PICPROGRAMS\PICBLINKTEST.BAS       00069               low light 
                      00194         LOW?T   _LIGHT
                          M         MOVE?CT 0, PORTB, 000h
                          M         CHK?RP  PORTB
                          M     if (((PORTB) & 180h) == 0)
                          M       if (PREV_BANK == 1)
                          M         bcf     STATUS, RP0
                          M       endif
                          M       if (PREV_BANK == 2)
                          M         bcf     STATUS, RP1
                          M       endif
                          M       if (PREV_BANK == 3)
                          M         bcf     STATUS, RP0
                          M         bcf     STATUS, RP1
                          M       endif
  00000000                M PREV_BANK = 0
                          M     endif
                          M 
                          M     if (((PORTB) & 180h) == 80h)
                          M       if (PREV_BANK == 0)
                          M         bsf     STATUS, RP0
                          M       endif
                          M       if (PREV_BANK == 2)
                          M         bsf     STATUS, RP0
                          M         bcf     STATUS, RP1
                          M       endif
                          M       if (PREV_BANK == 3)
                          M         bcf     STATUS, RP1
                          M       endif
                          M PREV_BANK = 1
                          M     endif
                          M 
                          M     if (((PORTB) & 180h) == 100h)
                          M       if (PREV_BANK == 0)
                          M         bsf     STATUS, RP1
                          M       endif
                          M       if (PREV_BANK == 1)
                          M         bcf     STATUS, RP0
                          M         bsf     STATUS, RP1
                          M       endif
                          M       if (PREV_BANK == 3)
                          M         bcf     STATUS, RP0
                          M       endif
                          M PREV_BANK = 2
                          M     endif
                          M 
                          M     if (((PORTB) & 180h) == 180h)
MPASM 5.62                  PICBLINKTEST.ASM   11-26-2016  17:28:27         PAGE 39


LOC  OBJECT CODE     LINE SOURCE TEXT
  VALUE

                          M       if (PREV_BANK == 0)
                          M         bsf     STATUS, RP0
                          M         bsf     STATUS, RP1
                          M       endif
                          M       if (PREV_BANK == 1)
                          M         bsf     STATUS, RP1
                          M       endif
                          M       if (PREV_BANK == 2)
                          M         bsf     STATUS, RP0
                          M       endif
                          M PREV_BANK = 3
                          M     endif
                          M     if (((0)   & 1) == 1)
                          M         bsf     PORTB,  000h
                          M     else
005F   1006               M         bcf     PORTB,  000h
                          M     endif
                          M         MOVE?CT 0, ((PORTB) + 80h), 000h
                          M         CHK?RP  ((PORTB) + 80h)
                          M     if (((((PORTB) + 80h)) & 180h) == 0)
                          M       if (PREV_BANK == 1)
                          M         bcf     STATUS, RP0
                          M       endif
                          M       if (PREV_BANK == 2)
                          M         bcf     STATUS, RP1
                          M       endif
                          M       if (PREV_BANK == 3)
                          M         bcf     STATUS, RP0
                          M         bcf     STATUS, RP1
                          M       endif
                          M PREV_BANK = 0
                          M     endif
                          M 
                          M     if (((((PORTB) + 80h)) & 180h) == 80h)
                          M       if (PREV_BANK == 0)
0060   1683               M         bsf     STATUS, RP0
                          M       endif
                          M       if (PREV_BANK == 2)
                          M         bsf     STATUS, RP0
                          M         bcf     STATUS, RP1
                          M       endif
                          M       if (PREV_BANK == 3)
                          M         bcf     STATUS, RP1
                          M       endif
  00000001                M PREV_BANK = 1
                          M     endif
                          M 
                          M     if (((((PORTB) + 80h)) & 180h) == 100h)
                          M       if (PREV_BANK == 0)
                          M         bsf     STATUS, RP1
                          M       endif
                          M       if (PREV_BANK == 1)
                          M         bcf     STATUS, RP0
MPASM 5.62                  PICBLINKTEST.ASM   11-26-2016  17:28:27         PAGE 40


LOC  OBJECT CODE     LINE SOURCE TEXT
  VALUE

                          M         bsf     STATUS, RP1
                          M       endif
                          M       if (PREV_BANK == 3)
                          M         bcf     STATUS, RP0
                          M       endif
                          M PREV_BANK = 2
                          M     endif
                          M 
                          M     if (((((PORTB) + 80h)) & 180h) == 180h)
                          M       if (PREV_BANK == 0)
                          M         bsf     STATUS, RP0
                          M         bsf     STATUS, RP1
                          M       endif
                          M       if (PREV_BANK == 1)
                          M         bsf     STATUS, RP1
                          M       endif
                          M       if (PREV_BANK == 2)
                          M         bsf     STATUS, RP0
                          M       endif
                          M PREV_BANK = 3
                          M     endif
                          M     if (((0)   & 1) == 1)
                          M         bsf     ((PORTB) + 80h), 000h
                          M     else
0061   1006               M         bcf     ((PORTB) + 80h), 000h
                          M     endif
                      00195 
                      00196 ; C:\PICPROGRAMS\PICBLINKTEST.BAS       00070               pause lightdelay  
                      00197         PAUSE?B _lightDelay
                          M         MOVE?BA _lightDelay
                          M         CHK?RP  _lightDelay
                          M     if (((_lightDelay) & 180h) == 0)
                          M       if (PREV_BANK == 1)
0062   1283               M         bcf     STATUS, RP0
                          M       endif
                          M       if (PREV_BANK == 2)
                          M         bcf     STATUS, RP1
                          M       endif
                          M       if (PREV_BANK == 3)
                          M         bcf     STATUS, RP0
                          M         bcf     STATUS, RP1
                          M       endif
  00000000                M PREV_BANK = 0
                          M     endif
                          M 
                          M     if (((_lightDelay) & 180h) == 80h)
                          M       if (PREV_BANK == 0)
                          M         bsf     STATUS, RP0
                          M       endif
                          M       if (PREV_BANK == 2)
                          M         bsf     STATUS, RP0
                          M         bcf     STATUS, RP1
                          M       endif
MPASM 5.62                  PICBLINKTEST.ASM   11-26-2016  17:28:27         PAGE 41


LOC  OBJECT CODE     LINE SOURCE TEXT
  VALUE

                          M       if (PREV_BANK == 3)
                          M         bcf     STATUS, RP1
                          M       endif
                          M PREV_BANK = 1
                          M     endif
                          M 
                          M     if (((_lightDelay) & 180h) == 100h)
                          M       if (PREV_BANK == 0)
                          M         bsf     STATUS, RP1
                          M       endif
                          M       if (PREV_BANK == 1)
                          M         bcf     STATUS, RP0
                          M         bsf     STATUS, RP1
                          M       endif
                          M       if (PREV_BANK == 3)
                          M         bcf     STATUS, RP0
                          M       endif
                          M PREV_BANK = 2
                          M     endif
                          M 
                          M     if (((_lightDelay) & 180h) == 180h)
                          M       if (PREV_BANK == 0)
                          M         bsf     STATUS, RP0
                          M         bsf     STATUS, RP1
                          M       endif
                          M       if (PREV_BANK == 1)
                          M         bsf     STATUS, RP1
                          M       endif
                          M       if (PREV_BANK == 2)
                          M         bsf     STATUS, RP0
                          M       endif
                          M PREV_BANK = 3
                          M     endif
0063   0839               M         movf    _lightDelay, W
                          M         L?CALL  PAUSE
                          M         RST?RP
                          M     if ((PREV_BANK & 1) != 0)
                          M         bcf     STATUS, RP0
                          M     endif
                          M     if ((PREV_BANK & 2) != 0)
                          M         bcf     STATUS, RP1
                          M     endif
  00000000                M PREV_BANK = 0
                          M 
                          M     ifdef USE_LINKER
                          M       if (CODE_SIZE > 2)
                          M         pagesel PAUSE
                          M       endif
                          M     else
                          M       if ((PAUSE) < 1)
                          M         if (CODE_SIZE > 2)
                          M           if (((PAUSE) & 800h) == 0)
                          M         bcf     PCLATH, 3
MPASM 5.62                  PICBLINKTEST.ASM   11-26-2016  17:28:27         PAGE 42


LOC  OBJECT CODE     LINE SOURCE TEXT
  VALUE

                          M         else
                          M         bsf     PCLATH, 3
                          M         endif
                          M         endif
                          M         if (CODE_SIZE > 4)
                          M           if (((PAUSE) & 1000h) == 0)
                          M         bcf     PCLATH, 4
                          M           else
                          M         bsf     PCLATH, 4
                          M           endif
                          M         endif
                          M       else
                          M         if ((PAUSE) > $)
                          M           if (CODE_SIZE > 2)
                          M             if (((PAUSE) & 800h) == 0)
                          M         bcf     PCLATH, 3
                          M             else
                          M         bsf     PCLATH, 3
                          M             endif
                          M           endif
                          M           if (CODE_SIZE > 4)
                          M             if (((PAUSE) & 1000h) == 0)
                          M         bcf     PCLATH, 4
                          M             else
                          M         bsf     PCLATH, 4
                          M             endif
                          M           endif
                          M         else
                          M           if (CODE_SIZE > 2)
                          M             if (((PAUSE) & 1800h) == 0)
0064   018A               M         clrf    PCLATH
                          M             else
                          M               if (((PAUSE) & 800h) == 0)
                          M         bcf     PCLATH, 3
                          M               else
                          M         bsf     PCLATH, 3
                          M               endif
                          M               if (CODE_SIZE > 4)
                          M                 if (((PAUSE) & 1000h) == 0)
                          M         bcf     PCLATH, 4
                          M                 else
                          M         bsf     PCLATH, 4
                          M                 endif   
                          M               endif
                          M             endif
                          M           endif
                          M         endif
                          M       endif
                          M     endif
                          M 
0065   2001               M         call    PAUSE
                      00198 
                      00199 ; C:\PICPROGRAMS\PICBLINKTEST.BAS       00071               high light
MPASM 5.62                  PICBLINKTEST.ASM   11-26-2016  17:28:27         PAGE 43


LOC  OBJECT CODE     LINE SOURCE TEXT
  VALUE

                      00200         HIGH?T  _LIGHT
                          M         MOVE?CT 1, PORTB, 000h
                          M         CHK?RP  PORTB
                          M     if (((PORTB) & 180h) == 0)
                          M       if (PREV_BANK == 1)
                          M         bcf     STATUS, RP0
                          M       endif
                          M       if (PREV_BANK == 2)
                          M         bcf     STATUS, RP1
                          M       endif
                          M       if (PREV_BANK == 3)
                          M         bcf     STATUS, RP0
                          M         bcf     STATUS, RP1
                          M       endif
  00000000                M PREV_BANK = 0
                          M     endif
                          M 
                          M     if (((PORTB) & 180h) == 80h)
                          M       if (PREV_BANK == 0)
                          M         bsf     STATUS, RP0
                          M       endif
                          M       if (PREV_BANK == 2)
                          M         bsf     STATUS, RP0
                          M         bcf     STATUS, RP1
                          M       endif
                          M       if (PREV_BANK == 3)
                          M         bcf     STATUS, RP1
                          M       endif
                          M PREV_BANK = 1
                          M     endif
                          M 
                          M     if (((PORTB) & 180h) == 100h)
                          M       if (PREV_BANK == 0)
                          M         bsf     STATUS, RP1
                          M       endif
                          M       if (PREV_BANK == 1)
                          M         bcf     STATUS, RP0
                          M         bsf     STATUS, RP1
                          M       endif
                          M       if (PREV_BANK == 3)
                          M         bcf     STATUS, RP0
                          M       endif
                          M PREV_BANK = 2
                          M     endif
                          M 
                          M     if (((PORTB) & 180h) == 180h)
                          M       if (PREV_BANK == 0)
                          M         bsf     STATUS, RP0
                          M         bsf     STATUS, RP1
                          M       endif
                          M       if (PREV_BANK == 1)
                          M         bsf     STATUS, RP1
                          M       endif
MPASM 5.62                  PICBLINKTEST.ASM   11-26-2016  17:28:27         PAGE 44


LOC  OBJECT CODE     LINE SOURCE TEXT
  VALUE

                          M       if (PREV_BANK == 2)
                          M         bsf     STATUS, RP0
                          M       endif
                          M PREV_BANK = 3
                          M     endif
                          M     if (((1)   & 1) == 1)
0066   1406               M         bsf     PORTB,  000h
                          M     else
                          M         bcf     PORTB,  000h
                          M     endif
                          M         MOVE?CT 0, ((PORTB) + 80h), 000h
                          M         CHK?RP  ((PORTB) + 80h)
                          M     if (((((PORTB) + 80h)) & 180h) == 0)
                          M       if (PREV_BANK == 1)
                          M         bcf     STATUS, RP0
                          M       endif
                          M       if (PREV_BANK == 2)
                          M         bcf     STATUS, RP1
                          M       endif
                          M       if (PREV_BANK == 3)
                          M         bcf     STATUS, RP0
                          M         bcf     STATUS, RP1
                          M       endif
                          M PREV_BANK = 0
                          M     endif
                          M 
                          M     if (((((PORTB) + 80h)) & 180h) == 80h)
                          M       if (PREV_BANK == 0)
0067   1683               M         bsf     STATUS, RP0
                          M       endif
                          M       if (PREV_BANK == 2)
                          M         bsf     STATUS, RP0
                          M         bcf     STATUS, RP1
                          M       endif
                          M       if (PREV_BANK == 3)
                          M         bcf     STATUS, RP1
                          M       endif
  00000001                M PREV_BANK = 1
                          M     endif
                          M 
                          M     if (((((PORTB) + 80h)) & 180h) == 100h)
                          M       if (PREV_BANK == 0)
                          M         bsf     STATUS, RP1
                          M       endif
                          M       if (PREV_BANK == 1)
                          M         bcf     STATUS, RP0
                          M         bsf     STATUS, RP1
                          M       endif
                          M       if (PREV_BANK == 3)
                          M         bcf     STATUS, RP0
                          M       endif
                          M PREV_BANK = 2
                          M     endif
MPASM 5.62                  PICBLINKTEST.ASM   11-26-2016  17:28:27         PAGE 45


LOC  OBJECT CODE     LINE SOURCE TEXT
  VALUE

                          M 
                          M     if (((((PORTB) + 80h)) & 180h) == 180h)
                          M       if (PREV_BANK == 0)
                          M         bsf     STATUS, RP0
                          M         bsf     STATUS, RP1
                          M       endif
                          M       if (PREV_BANK == 1)
                          M         bsf     STATUS, RP1
                          M       endif
                          M       if (PREV_BANK == 2)
                          M         bsf     STATUS, RP0
                          M       endif
                          M PREV_BANK = 3
                          M     endif
                          M     if (((0)   & 1) == 1)
                          M         bsf     ((PORTB) + 80h), 000h
                          M     else
0068   1006               M         bcf     ((PORTB) + 80h), 000h
                          M     endif
                      00201 
                      00202 ; C:\PICPROGRAMS\PICBLINKTEST.BAS       00072               pause lightdelay
                      00203         PAUSE?B _lightDelay
                          M         MOVE?BA _lightDelay
                          M         CHK?RP  _lightDelay
                          M     if (((_lightDelay) & 180h) == 0)
                          M       if (PREV_BANK == 1)
0069   1283               M         bcf     STATUS, RP0
                          M       endif
                          M       if (PREV_BANK == 2)
                          M         bcf     STATUS, RP1
                          M       endif
                          M       if (PREV_BANK == 3)
                          M         bcf     STATUS, RP0
                          M         bcf     STATUS, RP1
                          M       endif
  00000000                M PREV_BANK = 0
                          M     endif
                          M 
                          M     if (((_lightDelay) & 180h) == 80h)
                          M       if (PREV_BANK == 0)
                          M         bsf     STATUS, RP0
                          M       endif
                          M       if (PREV_BANK == 2)
                          M         bsf     STATUS, RP0
                          M         bcf     STATUS, RP1
                          M       endif
                          M       if (PREV_BANK == 3)
                          M         bcf     STATUS, RP1
                          M       endif
                          M PREV_BANK = 1
                          M     endif
                          M 
                          M     if (((_lightDelay) & 180h) == 100h)
MPASM 5.62                  PICBLINKTEST.ASM   11-26-2016  17:28:27         PAGE 46


LOC  OBJECT CODE     LINE SOURCE TEXT
  VALUE

                          M       if (PREV_BANK == 0)
                          M         bsf     STATUS, RP1
                          M       endif
                          M       if (PREV_BANK == 1)
                          M         bcf     STATUS, RP0
                          M         bsf     STATUS, RP1
                          M       endif
                          M       if (PREV_BANK == 3)
                          M         bcf     STATUS, RP0
                          M       endif
                          M PREV_BANK = 2
                          M     endif
                          M 
                          M     if (((_lightDelay) & 180h) == 180h)
                          M       if (PREV_BANK == 0)
                          M         bsf     STATUS, RP0
                          M         bsf     STATUS, RP1
                          M       endif
                          M       if (PREV_BANK == 1)
                          M         bsf     STATUS, RP1
                          M       endif
                          M       if (PREV_BANK == 2)
                          M         bsf     STATUS, RP0
                          M       endif
                          M PREV_BANK = 3
                          M     endif
006A   0839               M         movf    _lightDelay, W
                          M         L?CALL  PAUSE
                          M         RST?RP
                          M     if ((PREV_BANK & 1) != 0)
                          M         bcf     STATUS, RP0
                          M     endif
                          M     if ((PREV_BANK & 2) != 0)
                          M         bcf     STATUS, RP1
                          M     endif
  00000000                M PREV_BANK = 0
                          M 
                          M     ifdef USE_LINKER
                          M       if (CODE_SIZE > 2)
                          M         pagesel PAUSE
                          M       endif
                          M     else
                          M       if ((PAUSE) < 1)
                          M         if (CODE_SIZE > 2)
                          M           if (((PAUSE) & 800h) == 0)
                          M         bcf     PCLATH, 3
                          M         else
                          M         bsf     PCLATH, 3
                          M         endif
                          M         endif
                          M         if (CODE_SIZE > 4)
                          M           if (((PAUSE) & 1000h) == 0)
                          M         bcf     PCLATH, 4
MPASM 5.62                  PICBLINKTEST.ASM   11-26-2016  17:28:27         PAGE 47


LOC  OBJECT CODE     LINE SOURCE TEXT
  VALUE

                          M           else
                          M         bsf     PCLATH, 4
                          M           endif
                          M         endif
                          M       else
                          M         if ((PAUSE) > $)
                          M           if (CODE_SIZE > 2)
                          M             if (((PAUSE) & 800h) == 0)
                          M         bcf     PCLATH, 3
                          M             else
                          M         bsf     PCLATH, 3
                          M             endif
                          M           endif
                          M           if (CODE_SIZE > 4)
                          M             if (((PAUSE) & 1000h) == 0)
                          M         bcf     PCLATH, 4
                          M             else
                          M         bsf     PCLATH, 4
                          M             endif
                          M           endif
                          M         else
                          M           if (CODE_SIZE > 2)
                          M             if (((PAUSE) & 1800h) == 0)
006B   018A               M         clrf    PCLATH
                          M             else
                          M               if (((PAUSE) & 800h) == 0)
                          M         bcf     PCLATH, 3
                          M               else
                          M         bsf     PCLATH, 3
                          M               endif
                          M               if (CODE_SIZE > 4)
                          M                 if (((PAUSE) & 1000h) == 0)
                          M         bcf     PCLATH, 4
                          M                 else
                          M         bsf     PCLATH, 4
                          M                 endif   
                          M               endif
                          M             endif
                          M           endif
                          M         endif
                          M       endif
                          M     endif
                          M 
006C   2001               M         call    PAUSE
                      00204 
                      00205 ; C:\PICPROGRAMS\PICBLINKTEST.BAS       00073           Next I 
                      00206         NEXT?BCL        _I, 001h, L00009
                          M     if ((001h) == 1)
                          M         CHK?RP  _I
                          M     if (((_I)    & 180h) == 0)
                          M       if (PREV_BANK == 1)
                          M         bcf     STATUS, RP0
                          M       endif
MPASM 5.62                  PICBLINKTEST.ASM   11-26-2016  17:28:27         PAGE 48


LOC  OBJECT CODE     LINE SOURCE TEXT
  VALUE

                          M       if (PREV_BANK == 2)
                          M         bcf     STATUS, RP1
                          M       endif
                          M       if (PREV_BANK == 3)
                          M         bcf     STATUS, RP0
                          M         bcf     STATUS, RP1
                          M       endif
  00000000                M PREV_BANK = 0
                          M     endif
                          M 
                          M     if (((_I)    & 180h) == 80h)
                          M       if (PREV_BANK == 0)
                          M         bsf     STATUS, RP0
                          M       endif
                          M       if (PREV_BANK == 2)
                          M         bsf     STATUS, RP0
                          M         bcf     STATUS, RP1
                          M       endif
                          M       if (PREV_BANK == 3)
                          M         bcf     STATUS, RP1
                          M       endif
                          M PREV_BANK = 1
                          M     endif
                          M 
                          M     if (((_I)    & 180h) == 100h)
                          M       if (PREV_BANK == 0)
                          M         bsf     STATUS, RP1
                          M       endif
                          M       if (PREV_BANK == 1)
                          M         bcf     STATUS, RP0
                          M         bsf     STATUS, RP1
                          M       endif
                          M       if (PREV_BANK == 3)
                          M         bcf     STATUS, RP0
                          M       endif
                          M PREV_BANK = 2
                          M     endif
                          M 
                          M     if (((_I)    & 180h) == 180h)
                          M       if (PREV_BANK == 0)
                          M         bsf     STATUS, RP0
                          M         bsf     STATUS, RP1
                          M       endif
                          M       if (PREV_BANK == 1)
                          M         bsf     STATUS, RP1
                          M       endif
                          M       if (PREV_BANK == 2)
                          M         bsf     STATUS, RP0
                          M       endif
                          M PREV_BANK = 3
                          M     endif
                          M       if ((PREV_BANK == 0) & (CODE_SIZE <= 2))
                          M         incfsz  _I,  F
MPASM 5.62                  PICBLINKTEST.ASM   11-26-2016  17:28:27         PAGE 49


LOC  OBJECT CODE     LINE SOURCE TEXT
  VALUE

                          M         goto    L00009
                          M       else
006D   0AB8               M         incf    _I,  F
                          M         BIT?GOTO 0, STATUS, Z, L00009
                          M     ifdef USE_LINKER
                          M         CLRWDT?
                          M     else
                          M       if ($ == (L00009))
                          M         CLRWDT?
                          M       endif
                          M     endif
                          M 
                          M     ifdef USE_LINKER
                          M       if (CODE_SIZE > 2)
                          M         pagesel L00009
                          M       endif
                          M     else
                          M       if (CODE_SIZE > 2)
                          M         if (((L00009) & 800h) == 0)
006E   118A               M         bcf     PCLATH, 3
                          M         else
                          M         bsf     PCLATH, 3
                          M         endif
                          M       endif
                          M       if (CODE_SIZE > 4)
                          M         if (((L00009) & 1000h) == 0)
                          M         bcf     PCLATH, 4
                          M         else
                          M         bsf     PCLATH, 4
                          M         endif
                          M       endif
                          M     endif
                          M 
                          M     if (((STATUS) & 0ff80h) != 0)
                          M         CHK?RP  STATUS
                          M         bcf     STATUS, DC
                          M       if ((0)      == 0)
                          M         btfss   STATUS, Z
                          M       else
                          M         btfsc   STATUS, Z
                          M       endif
                          M         bsf     STATUS, DC
                          M         RST?RP
                          M         btfsc   STATUS, DC
                          M     else
                          M         RST?RP
                          M     if ((PREV_BANK & 1) != 0)
                          M         bcf     STATUS, RP0
                          M     endif
                          M     if ((PREV_BANK & 2) != 0)
                          M         bcf     STATUS, RP1
                          M     endif
  00000000                M PREV_BANK = 0
MPASM 5.62                  PICBLINKTEST.ASM   11-26-2016  17:28:27         PAGE 50


LOC  OBJECT CODE     LINE SOURCE TEXT
  VALUE

                          M       if ((0)      == 0)
006F   1D03               M         btfss   STATUS, Z
                          M       else
                          M         btfsc   STATUS, Z
                          M       endif
                          M     endif
                          M 
0070   2859               M         goto    L00009
                          M       endif
                          M     else
                          M         movlw   001h
                          M         CHK?RP  _I
                          M         addwf   _I,  F
                          M       if ((001h) <= 255)
                          M         BIT?GOTO 0, STATUS, C, L00009
                          M       endif
                          M     endif
                      00207         LABEL?L L00010  
                          M         RST?RP
                          M     if ((PREV_BANK & 1) != 0)
                          M         bcf     STATUS, RP0
                          M     endif
                          M     if ((PREV_BANK & 2) != 0)
                          M         bcf     STATUS, RP1
                          M     endif
  00000000                M PREV_BANK = 0
                          M     ifdef PM_USED
                          M         LALL
                          M L00010
                          M         XALL
                          M     else
0071                      M L00010
                          M     endif
                      00208 
                      00209 ; C:\PICPROGRAMS\PICBLINKTEST.BAS       00074           lightstate = 0
                      00210         MOVE?CB 000h, _lightState
                          M         CHK?RP  _lightState
                          M     if (((_lightState) & 180h) == 0)
                          M       if (PREV_BANK == 1)
                          M         bcf     STATUS, RP0
                          M       endif
                          M       if (PREV_BANK == 2)
                          M         bcf     STATUS, RP1
                          M       endif
                          M       if (PREV_BANK == 3)
                          M         bcf     STATUS, RP0
                          M         bcf     STATUS, RP1
                          M       endif
  00000000                M PREV_BANK = 0
                          M     endif
                          M 
                          M     if (((_lightState) & 180h) == 80h)
                          M       if (PREV_BANK == 0)
MPASM 5.62                  PICBLINKTEST.ASM   11-26-2016  17:28:27         PAGE 51


LOC  OBJECT CODE     LINE SOURCE TEXT
  VALUE

                          M         bsf     STATUS, RP0
                          M       endif
                          M       if (PREV_BANK == 2)
                          M         bsf     STATUS, RP0
                          M         bcf     STATUS, RP1
                          M       endif
                          M       if (PREV_BANK == 3)
                          M         bcf     STATUS, RP1
                          M       endif
                          M PREV_BANK = 1
                          M     endif
                          M 
                          M     if (((_lightState) & 180h) == 100h)
                          M       if (PREV_BANK == 0)
                          M         bsf     STATUS, RP1
                          M       endif
                          M       if (PREV_BANK == 1)
                          M         bcf     STATUS, RP0
                          M         bsf     STATUS, RP1
                          M       endif
                          M       if (PREV_BANK == 3)
                          M         bcf     STATUS, RP0
                          M       endif
                          M PREV_BANK = 2
                          M     endif
                          M 
                          M     if (((_lightState) & 180h) == 180h)
                          M       if (PREV_BANK == 0)
                          M         bsf     STATUS, RP0
                          M         bsf     STATUS, RP1
                          M       endif
                          M       if (PREV_BANK == 1)
                          M         bsf     STATUS, RP1
                          M       endif
                          M       if (PREV_BANK == 2)
                          M         bsf     STATUS, RP0
                          M       endif
                          M PREV_BANK = 3
                          M     endif
                          M     if (low (000h) == 0)
0071   01BA               M         clrf    _lightState
                          M     else
                          M         movlw   low (000h)
                          M         movwf   _lightState
                          M     endif
                      00211 
                      00212 ; C:\PICPROGRAMS\PICBLINKTEST.BAS       00075       endif
                      00213         LABEL?L L00007  
                          M         RST?RP
                          M     if ((PREV_BANK & 1) != 0)
                          M         bcf     STATUS, RP0
                          M     endif
                          M     if ((PREV_BANK & 2) != 0)
MPASM 5.62                  PICBLINKTEST.ASM   11-26-2016  17:28:27         PAGE 52


LOC  OBJECT CODE     LINE SOURCE TEXT
  VALUE

                          M         bcf     STATUS, RP1
                          M     endif
  00000000                M PREV_BANK = 0
                          M     ifdef PM_USED
                          M         LALL
                          M L00007
                          M         XALL
                          M     else
0072                      M L00007
                          M     endif
                      00214 
                      00215 ; C:\PICPROGRAMS\PICBLINKTEST.BAS       00076   endif
                      00216         LABEL?L L00005  
                          M         RST?RP
                          M     if ((PREV_BANK & 1) != 0)
                          M         bcf     STATUS, RP0
                          M     endif
                          M     if ((PREV_BANK & 2) != 0)
                          M         bcf     STATUS, RP1
                          M     endif
  00000000                M PREV_BANK = 0
                          M     ifdef PM_USED
                          M         LALL
                          M L00005
                          M         XALL
                          M     else
0072                      M L00005
                          M     endif
                      00217 
                      00218 ; C:\PICPROGRAMS\PICBLINKTEST.BAS       00078   goto myloop  
                      00219         GOTO?L  _myloop
                          M         L?GOTO  _myloop
                          M     ifdef USE_LINKER
                          M         CLRWDT?
                          M     else
                          M       if ($ == (_myloop))
                          M         CLRWDT?
                          M       endif
                          M     endif
                          M 
                          M         RST?RP
                          M     if ((PREV_BANK & 1) != 0)
                          M         bcf     STATUS, RP0
                          M     endif
                          M     if ((PREV_BANK & 2) != 0)
                          M         bcf     STATUS, RP1
                          M     endif
  00000000                M PREV_BANK = 0
                          M 
                          M     ifdef USE_LINKER
                          M       if (CODE_SIZE > 2)
                          M         pagesel _myloop
                          M       endif
MPASM 5.62                  PICBLINKTEST.ASM   11-26-2016  17:28:27         PAGE 53


LOC  OBJECT CODE     LINE SOURCE TEXT
  VALUE

                          M     else
                          M       if ((_myloop) < 1)
                          M         if (CODE_SIZE > 2)
                          M           if (((_myloop) & 800h) == 0)
                          M         bcf     PCLATH, 3
                          M           else
                          M         bsf     PCLATH, 3
                          M           endif
                          M         endif
                          M         if (CODE_SIZE > 4)
                          M           if (((_myloop) & 1000h) == 0)
                          M         bcf     PCLATH, 4
                          M           else
                          M         bsf     PCLATH, 4
                          M           endif
                          M         endif
                          M       else
                          M         if ((_myloop) > $)
                          M           if (CODE_SIZE > 2)
                          M             if (((_myloop) & 800h) == 0)
                          M         bcf     PCLATH, 3
                          M             else
                          M         bsf     PCLATH, 3
                          M             endif
                          M           endif
                          M           if (CODE_SIZE > 4)
                          M             if (((_myloop) & 1000h) == 0)
                          M         bcf     PCLATH, 4
                          M             else
                          M         bsf     PCLATH, 4
                          M             endif
                          M           endif
                          M         else
                          M           if (CODE_SIZE > 2)
                          M             if (((_myloop) & 1800h) == 0)
0072   018A               M         clrf    PCLATH
                          M             else
                          M               if (((_myloop) & 800h) == 0)
                          M         bcf     PCLATH, 3
                          M               else
                          M         bsf     PCLATH, 3
                          M               endif
                          M               if (CODE_SIZE > 4)
                          M                 if (((_myloop) & 1000h) == 0)
                          M         bcf     PCLATH, 4
                          M                 else
                          M         bsf     PCLATH, 4
                          M                 endif
                          M               endif
                          M             endif
                          M           endif
                          M         endif
                          M       endif
MPASM 5.62                  PICBLINKTEST.ASM   11-26-2016  17:28:27         PAGE 54


LOC  OBJECT CODE     LINE SOURCE TEXT
  VALUE

                          M     endif
                          M 
0073   2833               M         goto    _myloop
                      00220 
                      00221         END
MPASM 5.62                  PICBLINKTEST.ASM   11-26-2016  17:28:27         PAGE 55


SYMBOL TABLE
  LABEL                             VALUE 

ADCON0                            0000001F
ADCON1                            0000009F
ADCS0                             00000006
ADCS1                             00000007
ADCS2                             00000006
ADC_BITS                          00000008
ADC_CLOCK                         00000003
ADC_SAMPLEUS                      00000032
ADDEN                             00000003
ADFM                              00000007
ADIE                              00000006
ADIF                              00000006
ADON                              00000000
ADRESH                            0000001E
ADRESL                            0000009E
ANS0                              00000000
ANS1                              00000001
ANS2                              00000002
ANS3                              00000003
ANS4                              00000004
ANS5                              00000005
ANS6                              00000006
ANSEL                             0000009B
BANK0_END                         0000007F
BANK0_START                       00000020
BANK1_END                         000000EF
BANK1_START                       000000A0
BANK2_END                         0000016F
BANK2_START                       00000110
BANK3_END                         000001EF
BANK3_START                       00000190
BF                                00000000
BIT?FLIP                          
BIT?FW                            
BIT?GOTO                          
BIT?R1                            
BIT?R2                            
BIT?W                             
BRGH                              00000002
BUTTON_PAUSE                      0000000A
C                                 00000000
C1INV                             00000004
C1OUT                             00000006
C2INV                             00000005
C2OUT                             00000007
CCP1CON                           00000017
CCP1IE                            00000002
CCP1IF                            00000002
CCP1M0                            00000000
CCP1M1                            00000001
CCP1M2                            00000002
CCP1M3                            00000003
CCP1X                             00000005
MPASM 5.62                  PICBLINKTEST.ASM   11-26-2016  17:28:27         PAGE 56


SYMBOL TABLE
  LABEL                             VALUE 

CCP1Y                             00000004
CCP1_BIT                          00000003
CCP1_REG                          00000006
CCPR1                             00000015
CCPR1H                            00000016
CCPR1L                            00000015
CHK?RP                            
CHS0                              00000003
CHS1                              00000004
CHS2                              00000005
CIS                               00000003
CKE                               00000006
CKP                               00000004
CLRWDT?                           
CLRWDT?NOP                        
CM0                               00000000
CM1                               00000001
CM2                               00000002
CMCON                             0000009C
CMIE                              00000006
CMIF                              00000006
CMPGT?BCL                         
CMPNE?BCL                         
CMPNE?TCL                         
CODE_SIZE                         4
CREN                              00000004
CSRC                              00000007
CVR0                              00000000
CVR1                              00000001
CVR2                              00000002
CVR3                              00000003
CVRCON                            0000009D
CVREN                             00000007
CVROE                             00000006
CVRR                              00000005
D                                 00000005
DATA_ADDRESS                      00000005
DC                                00000001
DEBUGIN_BIT                       00000000
DEBUGIN_MODE                      00000001
DEBUGIN_REG                       00000006
DEBUG_BAUD                        00000960
DEBUG_BIT                         00000000
DEBUG_DELAY                       0000019A
DEBUG_MODE                        00000001
DEBUG_REG                         00000006
DONE                              00000022
DONERET                           00000026
DONE_USED                         00000001
D_A                               00000005
D_NOT_A                           00000005
EEADR                             0000010D
EEADRH                            0000010F
MPASM 5.62                  PICBLINKTEST.ASM   11-26-2016  17:28:27         PAGE 57


SYMBOL TABLE
  LABEL                             VALUE 

EECON1                            0000018C
EECON2                            0000018D
EEDATA                            0000010C
EEDATH                            0000010E
EEIE                              00000004
EEIF                              00000004
EEPGD                             00000007
EEPROM_END                        000021FF
EEPROM_START                      00002100
F                                 00000001
FERR                              00000002
FLAGS                             00000032
FREE                              00000004
FSR                               00000004
GIE                               00000007
GO                                00000002
GOP                               00000033
GOTO?L                            
GO_DONE                           00000002
GO_NOT_DONE                       00000002
HIGH?T                            
HSER_BAUD                         00000960
HSER_BITS                         00000008
HSER_RCSTA                        00000090
HSER_SPBRG                        00000033
HSER_TXSTA                        00000020
I2CFIRSTFLAG                      FLAGS, 2
I2CREADFLAG                       FLAGS, 3
I2CSTOPFLAG                       FLAGS, 5
I2CSTOPSTRFLAG                    FLAGS, 6
I2CWRITEFLAG                      FLAGS, 4
I2C_DATA                          00000005
I2C_READ                          00000002
I2C_START                         00000003
I2C_STOP                          00000004
INDF                              00000000
INIT                              00000027
INT0IE                            00000004
INT0IF                            00000001
INTCON                            0000000B
INTE                              00000004
INTEDG                            00000006
INTF                              00000001
IOFS                              00000002
IRCF0                             00000004
IRCF1                             00000005
IRCF2                             00000006
IRP                               00000007
L00001                            0000004D
L00003                            0000004D
L00005                            00000072
L00007                            00000072
L00009                            00000059
MPASM 5.62                  PICBLINKTEST.ASM   11-26-2016  17:28:27         PAGE 58


SYMBOL TABLE
  LABEL                             VALUE 

L00010                            00000071
L?CALL                            
L?GOTO                            
LABEL?L                           
LCDCDFLAG                         FLAGS, 0
LCDINITFLAG                       FLAGS, 1
LCD_BITS                          00000004
LCD_COMMANDUS                     000007D0
LCD_DATAUS                        00000032
LCD_DBIT                          00000000
LCD_DREG                          00000005
LCD_EBIT                          00000003
LCD_EREG                          00000006
LCD_LINES                         00000002
LCD_RSBIT                         00000004
LCD_RSREG                         00000005
LCD_RWBIT                         00000004
LCD_RWREG                         00000005
LOW?T                             
MOVE?AB                           
MOVE?AT                           
MOVE?AW                           
MOVE?AWW                          
MOVE?BA                           
MOVE?BB                           
MOVE?BT                           
MOVE?BW                           
MOVE?CA                           
MOVE?CB                           
MOVE?CT                           
MOVE?CW                           
MOVE?TA                           
MOVE?TB                           
MOVE?TT                           
MOVE?TW                           
MOVE?WA                           
MOVE?WB                           
MOVE?WT                           
MOVE?WW                           
MOVE?WWA                          
MPASMX_USED                       00000001
NEXT?BCL                          
NOT_A                             00000005
NOT_ADDRESS                       00000005
NOT_BO                            00000000
NOT_BOR                           00000000
NOT_DONE                          00000002
NOT_PD                            00000003
NOT_POR                           00000001
NOT_RBPU                          00000007
NOT_RC8                           00000006
NOT_T1SYNC                        00000002
NOT_TO                            00000004
MPASM 5.62                  PICBLINKTEST.ASM   11-26-2016  17:28:27         PAGE 59


SYMBOL TABLE
  LABEL                             VALUE 

NOT_TX8                           00000006
NOT_W                             00000002
NOT_WRITE                         00000002
OERR                              00000001
OPTION_REG                        00000081
OSC                               8
OSCCON                            0000008F
OSCTUNE                           00000090
OSC_VALID                         00000001
OSFIE                             00000007
OSFIF                             00000007
OSTS                              00000003
P                                 00000004
PAUSE                             00000001
PAUSE?B                           
PAUSEL                            00000002
PAUSEUS                           0000000E
PAUSEUSL                          0000000F
PAUSEUS_USED                      00000001
PAUSE_DELAY                       000003E3
PAUSE_USED                        00000001
PBP_HARDWAREDEF                   
PBP_PATH                          C:\PROGRAM FILES (X86)\PBP3\
PCL                               00000002
PCLATH                            0000000A
PCON                              0000008E
PEIE                              00000006
PIE1                              0000008C
PIE2                              0000008D
PIR1                              0000000C
PIR2                              0000000D
PORTA                             00000005
PORTB                             00000006
PR2                               00000092
PREV_BANK                         00000000
PS0                               00000000
PS1                               00000001
PS2                               00000002
PSA                               00000003
R                                 00000002
R0                                00000020
R1                                00000022
R2                                00000024
R3                                00000026
R4                                00000028
R5                                0000002A
R6                                0000002C
R7                                0000002E
R8                                00000030
RA0                               00000000
RA1                               00000001
RA2                               00000002
RA3                               00000003
MPASM 5.62                  PICBLINKTEST.ASM   11-26-2016  17:28:27         PAGE 60


SYMBOL TABLE
  LABEL                             VALUE 

RA4                               00000004
RA5                               00000005
RA6                               00000006
RA7                               00000007
RAM_BANKS                         00000004
RAM_END                           000001EF
RAM_START                         00000020
RB0                               00000000
RB1                               00000001
RB2                               00000002
RB3                               00000003
RB4                               00000004
RB5                               00000005
RB6                               00000006
RB7                               00000007
RBIE                              00000003
RBIF                              00000000
RC8_9                             00000006
RC9                               00000006
RCD8                              00000000
RCIE                              00000005
RCIF                              00000005
RCREG                             0000001A
RCSTA                             00000018
RD                                00000000
READ_WRITE                        00000002
RESET_ORG                         00000000
RM1                               00000034
RM2                               00000035
RP0                               00000005
RP1                               00000006
RR1                               00000036
RR2                               00000037
RST?RP                            
RX9                               00000006
RX9D                              00000000
R_NOT_W                           00000002
R_W                               00000002
S                                 00000003
SCS0                              00000000
SCS1                              00000001
SMP                               00000007
SPBRG                             00000099
SPEN                              00000007
SREN                              00000005
SSPADD                            00000093
SSPBUF                            00000013
SSPCON                            00000014
SSPEN                             00000005
SSPIE                             00000003
SSPIF                             00000003
SSPM0                             00000000
SSPM1                             00000001
MPASM 5.62                  PICBLINKTEST.ASM   11-26-2016  17:28:27         PAGE 61


SYMBOL TABLE
  LABEL                             VALUE 

SSPM2                             00000002
SSPM3                             00000003
SSPOV                             00000006
SSPSTAT                           00000094
STATUS                            00000003
SWDTE                             00000000
SWDTEN                            00000000
SYNC                              00000004
T0CS                              00000005
T0SE                              00000004
T1CKPS0                           00000004
T1CKPS1                           00000005
T1CON                             00000010
T1INSYNC                          00000002
T1OSCEN                           00000003
T1RUN                             00000006
T2CKPS0                           00000000
T2CKPS1                           00000001
T2CON                             00000012
TMR0                              00000001
TMR0IE                            00000005
TMR0IF                            00000002
TMR1                              0000000E
TMR1CS                            00000001
TMR1H                             0000000F
TMR1IE                            00000000
TMR1IF                            00000000
TMR1L                             0000000E
TMR1ON                            00000000
TMR2                              00000011
TMR2IE                            00000001
TMR2IF                            00000001
TMR2ON                            00000002
TOUTPS0                           00000003
TOUTPS1                           00000004
TOUTPS2                           00000005
TOUTPS3                           00000006
TRISA                             00000085
TRISA0                            00000000
TRISA1                            00000001
TRISA2                            00000002
TRISA3                            00000003
TRISA4                            00000004
TRISA5                            00000005
TRISA6                            00000006
TRISA7                            00000007
TRISB                             00000086
TRISB0                            00000000
TRISB1                            00000001
TRISB2                            00000002
TRISB3                            00000003
TRISB4                            00000004
TRISB5                            00000005
MPASM 5.62                  PICBLINKTEST.ASM   11-26-2016  17:28:27         PAGE 62


SYMBOL TABLE
  LABEL                             VALUE 

TRISB6                            00000006
TRISB7                            00000007
TRMT                              00000001
TUN0                              00000000
TUN1                              00000001
TUN2                              00000002
TUN3                              00000003
TUN4                              00000004
TUN5                              00000005
TX8_9                             00000006
TX9                               00000006
TX9D                              00000000
TXD8                              00000000
TXEN                              00000005
TXIE                              00000004
TXIF                              00000004
TXREG                             00000019
TXSTA                             00000098
UA                                00000001
VCFG0                             00000004
VCFG1                             00000005
W                                 00000000
WCOL                              00000007
WDTCON                            00000105
WDTPS0                            00000001
WDTPS1                            00000002
WDTPS2                            00000003
WDTPS3                            00000004
WR                                00000001
WREN                              00000002
WRERR                             00000003
Z                                 00000002
_BODEN_OFF                        00003FBF
_BODEN_ON                         00003FFF
_BOREN_OFF                        00003FBF
_BOREN_ON                         00003FFF
_CCP1_RB0                         00003FFF
_CCP1_RB3                         00002FFF
_CCPMX_RB0                        00003FFF
_CCPMX_RB3                        00002FFF
_CONFIG1                          00002007
_CONFIG2                          00002008
_CPD_OFF                          00003FFF
_CPD_ON                           00003EFF
_CP_ALL                           00001FFF
_CP_OFF                           00003FFF
_CP_ON                            00001FFF
_DEBUG_OFF                        00003FFF
_DEBUG_ON                         000037FF
_DEVID1                           00002006
_EXTCLK                           00003FEF
_EXTRC_CLKOUT                     00003FFF
_EXTRC_IO                         00003FFE
MPASM 5.62                  PICBLINKTEST.ASM   11-26-2016  17:28:27         PAGE 63


SYMBOL TABLE
  LABEL                             VALUE 

_FCMEN_OFF                        00003FFE
_FCMEN_ON                         00003FFF
_FOSC_EC                          00003FEF
_FOSC_EXTRCCLK                    00003FFF
_FOSC_EXTRCIO                     00003FFE
_FOSC_HS                          00003FEE
_FOSC_INTOSCCLK                   00003FFD
_FOSC_INTOSCIO                    00003FFC
_FOSC_LP                          00003FEC
_FOSC_XT                          00003FED
_HS_OSC                           00003FEE
_I                                00000038
_IDLOC0                           00002000
_IDLOC1                           00002001
_IDLOC2                           00002002
_IDLOC3                           00002003
_IESO_OFF                         00003FFD
_IESO_ON                          00003FFF
_INTRC_CLKOUT                     00003FFD
_INTRC_IO                         00003FFC
_LIGHT                            _PORTB??0
_LP_OSC                           00003FEC
_LVP_OFF                          00003F7F
_LVP_ON                           00003FFF
_MCLRE_OFF                        00003FDF
_MCLRE_ON                         00003FFF
_MCLR_OFF                         00003FDF
_MCLR_ON                          00003FFF
_OSCCON??4                        OSCCON, 004h
_OSCCON??5                        OSCCON, 005h
_OSCCON??6                        OSCCON, 006h
_PORTA??0                         PORTA, 000h
_PORTA??1                         PORTA, 001h
_PORTB??0                         PORTB, 000h
_PORTH                            00000005
_PORTL                            00000006
_PWRTE_OFF                        00003FFF
_PWRTE_ON                         00003FF7
_SWITCHL                          _PORTA??0
_SWITCHR                          _PORTA??1
_TRISH                            00000085
_TRISL                            00000086
_WDTE_OFF                         00003FFB
_WDTE_ON                          00003FFF
_WDT_OFF                          00003FFB
_WDT_ON                           00003FFF
_WRT_2048                         00003BFF
_WRT_256                          00003DFF
_WRT_ALL                          000039FF
_WRT_OFF                          00003FFF
_WRT_PROTECT_2048                 00003BFF
_WRT_PROTECT_256                  00003DFF
_WRT_PROTECT_ALL                  000039FF
MPASM 5.62                  PICBLINKTEST.ASM   11-26-2016  17:28:27         PAGE 64


SYMBOL TABLE
  LABEL                             VALUE 

_WRT_PROTECT_OFF                  00003FFF
_XT_OSC                           00003FED
__16F88                           00000001
_lightDelay                       00000039
_lightState                       0000003A
_myloop                           00000033
main                              00000027
pauseloop                         00000003
pauseush                          00000018
pauseusloop                       00000015


MEMORY USAGE MAP ('X' = Used,  '-' = Unused)

0000 : XXXXXXXXXXXXXXXX XXXXXXXXXXXXXXXX XXXXXXXXXXXXXXXX XXXXXXXXXXXXXXXX
0040 : XXXXXXXXXXXXXXXX XXXXXXXXXXXXXXXX XXXXXXXXXXXXXXXX XXXX------------
2000 : -------X-------- ---------------- ---------------- ----------------

All other memory blocks unused.

Program Memory Words Used:   116
Program Memory Words Free:  3980


Errors   :     0
Warnings :     0 reported,     0 suppressed
Messages :     0 reported,    10 suppressed

